
_usertests:     file format elf32-i386


Disassembly of section .text:

00000000 <main>:
  randstate = randstate * 1664525 + 1013904223;
  return randstate;
}

int main(int argc, char *argv[])
{
       0:	8d 4c 24 04          	lea    0x4(%esp),%ecx
       4:	83 e4 f0             	and    $0xfffffff0,%esp
       7:	ff 71 fc             	pushl  -0x4(%ecx)
       a:	55                   	push   %ebp
       b:	89 e5                	mov    %esp,%ebp
       d:	51                   	push   %ecx
       e:	83 ec 0c             	sub    $0xc,%esp
  printf(1, "usertests starting\n");
      11:	68 ee 52 00 00       	push   $0x52ee
      16:	6a 01                	push   $0x1
      18:	e8 c3 3f 00 00       	call   3fe0 <printf>

  if (open("usertests.ran", 0) >= 0)
      1d:	5a                   	pop    %edx
      1e:	59                   	pop    %ecx
      1f:	6a 00                	push   $0x0
      21:	68 02 53 00 00       	push   $0x5302
      26:	e8 97 3e 00 00       	call   3ec2 <open>
      2b:	83 c4 10             	add    $0x10,%esp
      2e:	85 c0                	test   %eax,%eax
      30:	78 1b                	js     4d <main+0x4d>
  {
    printf(1, "already ran user tests -- rebuild fs.img\n");
      32:	83 ec 08             	sub    $0x8,%esp
      35:	68 6c 5a 00 00       	push   $0x5a6c
      3a:	6a 01                	push   $0x1
      3c:	e8 9f 3f 00 00       	call   3fe0 <printf>
    exit(FAIL_STATUS);
      41:	c7 04 24 00 00 00 00 	movl   $0x0,(%esp)
      48:	e8 35 3e 00 00       	call   3e82 <exit>
  }
  close(open("usertests.ran", O_CREATE));
      4d:	50                   	push   %eax
      4e:	50                   	push   %eax
      4f:	68 00 02 00 00       	push   $0x200
      54:	68 02 53 00 00       	push   $0x5302
      59:	e8 64 3e 00 00       	call   3ec2 <open>
      5e:	89 04 24             	mov    %eax,(%esp)
      61:	e8 44 3e 00 00       	call   3eaa <close>

  argptest();
      66:	e8 45 3b 00 00       	call   3bb0 <argptest>
  createdelete();
      6b:	e8 60 13 00 00       	call   13d0 <createdelete>
  linkunlink();
      70:	e8 fb 1c 00 00       	call   1d70 <linkunlink>
  concreate();
      75:	e8 a6 19 00 00       	call   1a20 <concreate>
  fourfiles();
      7a:	e8 21 11 00 00       	call   11a0 <fourfiles>
  sharedfd();
      7f:	e8 5c 0f 00 00       	call   fe0 <sharedfd>

  bigargtest();
      84:	e8 87 37 00 00       	call   3810 <bigargtest>
  bigwrite();
      89:	e8 32 27 00 00       	call   27c0 <bigwrite>
  bigargtest();
      8e:	e8 7d 37 00 00       	call   3810 <bigargtest>
  bsstest();
      93:	e8 f8 36 00 00       	call   3790 <bsstest>
  sbrktest();
      98:	e8 73 31 00 00       	call   3210 <sbrktest>
  validatetest();
      9d:	e8 1e 36 00 00       	call   36c0 <validatetest>

  opentest();
      a2:	e8 e9 03 00 00       	call   490 <opentest>
  writetest();
      a7:	e8 84 04 00 00       	call   530 <writetest>
  writetest1();
      ac:	e8 8f 06 00 00       	call   740 <writetest1>
  createtest();
      b1:	e8 8a 08 00 00       	call   940 <createtest>

  openiputtest();
      b6:	e8 a5 02 00 00       	call   360 <openiputtest>
  exitiputtest();
      bb:	e8 70 01 00 00       	call   230 <exitiputtest>
  iputtest();
      c0:	e8 6b 00 00 00       	call   130 <iputtest>

  mem();
      c5:	e8 26 0e 00 00       	call   ef0 <mem>
  pipe1();
      ca:	e8 71 0a 00 00       	call   b40 <pipe1>
  preempt();
      cf:	e8 2c 0c 00 00       	call   d00 <preempt>
  exitwait();
      d4:	e8 77 0d 00 00       	call   e50 <exitwait>

  rmdot();
      d9:	e8 32 2b 00 00       	call   2c10 <rmdot>
  fourteen();
      de:	e8 cd 29 00 00       	call   2ab0 <fourteen>
  bigfile();
      e3:	e8 c8 27 00 00       	call   28b0 <bigfile>
  subdir();
      e8:	e8 e3 1e 00 00       	call   1fd0 <subdir>
  linktest();
      ed:	e8 de 16 00 00       	call   17d0 <linktest>
  unlinkread();
      f2:	e8 19 15 00 00       	call   1610 <unlinkread>
  dirfile();
      f7:	e8 c4 2c 00 00       	call   2dc0 <dirfile>
  iref();
      fc:	e8 ff 2e 00 00       	call   3000 <iref>
  forktest();
     101:	e8 2a 30 00 00       	call   3130 <forktest>
  bigdir(); // slow
     106:	e8 75 1d 00 00       	call   1e80 <bigdir>

  uio();
     10b:	e8 10 3a 00 00       	call   3b20 <uio>

  exectest();
     110:	e8 db 09 00 00       	call   af0 <exectest>

  exit(PASS_STATUS);
     115:	c7 04 24 01 00 00 00 	movl   $0x1,(%esp)
     11c:	e8 61 3d 00 00       	call   3e82 <exit>
     121:	66 90                	xchg   %ax,%ax
     123:	66 90                	xchg   %ax,%ax
     125:	66 90                	xchg   %ax,%ax
     127:	66 90                	xchg   %ax,%ax
     129:	66 90                	xchg   %ax,%ax
     12b:	66 90                	xchg   %ax,%ax
     12d:	66 90                	xchg   %ax,%ax
     12f:	90                   	nop

00000130 <iputtest>:
char *echoargv[] = {"echo", "ALL", "TESTS", "PASSED", 0};
int stdout = 1;

// does chdir() call iput(p->cwd) in a transaction?
void iputtest(void)
{
     130:	55                   	push   %ebp
     131:	89 e5                	mov    %esp,%ebp
     133:	83 ec 10             	sub    $0x10,%esp
  printf(stdout, "iput test\n");
     136:	68 94 43 00 00       	push   $0x4394
     13b:	ff 35 a4 63 00 00    	pushl  0x63a4
     141:	e8 9a 3e 00 00       	call   3fe0 <printf>

  if (mkdir("iputdir") < 0)
     146:	c7 04 24 27 43 00 00 	movl   $0x4327,(%esp)
     14d:	e8 98 3d 00 00       	call   3eea <mkdir>
     152:	83 c4 10             	add    $0x10,%esp
     155:	85 c0                	test   %eax,%eax
     157:	78 58                	js     1b1 <iputtest+0x81>
  {
    printf(stdout, "mkdir failed\n");
    exit(FAIL_STATUS);
  }
  if (chdir("iputdir") < 0)
     159:	83 ec 0c             	sub    $0xc,%esp
     15c:	68 27 43 00 00       	push   $0x4327
     161:	e8 8c 3d 00 00       	call   3ef2 <chdir>
     166:	83 c4 10             	add    $0x10,%esp
     169:	85 c0                	test   %eax,%eax
     16b:	0f 88 9a 00 00 00    	js     20b <iputtest+0xdb>
  {
    printf(stdout, "chdir iputdir failed\n");
    exit(FAIL_STATUS);
  }
  if (unlink("../iputdir") < 0)
     171:	83 ec 0c             	sub    $0xc,%esp
     174:	68 24 43 00 00       	push   $0x4324
     179:	e8 54 3d 00 00       	call   3ed2 <unlink>
     17e:	83 c4 10             	add    $0x10,%esp
     181:	85 c0                	test   %eax,%eax
     183:	78 68                	js     1ed <iputtest+0xbd>
  {
    printf(stdout, "unlink ../iputdir failed\n");
    exit(FAIL_STATUS);
  }
  if (chdir("/") < 0)
     185:	83 ec 0c             	sub    $0xc,%esp
     188:	68 49 43 00 00       	push   $0x4349
     18d:	e8 60 3d 00 00       	call   3ef2 <chdir>
     192:	83 c4 10             	add    $0x10,%esp
     195:	85 c0                	test   %eax,%eax
     197:	78 36                	js     1cf <iputtest+0x9f>
  {
    printf(stdout, "chdir / failed\n");
    exit(FAIL_STATUS);
  }
  printf(stdout, "iput test ok\n");
     199:	83 ec 08             	sub    $0x8,%esp
     19c:	68 cc 43 00 00       	push   $0x43cc
     1a1:	ff 35 a4 63 00 00    	pushl  0x63a4
     1a7:	e8 34 3e 00 00       	call   3fe0 <printf>
}
     1ac:	83 c4 10             	add    $0x10,%esp
     1af:	c9                   	leave  
     1b0:	c3                   	ret    
{
  printf(stdout, "iput test\n");

  if (mkdir("iputdir") < 0)
  {
    printf(stdout, "mkdir failed\n");
     1b1:	50                   	push   %eax
     1b2:	50                   	push   %eax
     1b3:	68 00 43 00 00       	push   $0x4300
     1b8:	ff 35 a4 63 00 00    	pushl  0x63a4
     1be:	e8 1d 3e 00 00       	call   3fe0 <printf>
    exit(FAIL_STATUS);
     1c3:	c7 04 24 00 00 00 00 	movl   $0x0,(%esp)
     1ca:	e8 b3 3c 00 00       	call   3e82 <exit>
    printf(stdout, "unlink ../iputdir failed\n");
    exit(FAIL_STATUS);
  }
  if (chdir("/") < 0)
  {
    printf(stdout, "chdir / failed\n");
     1cf:	50                   	push   %eax
     1d0:	50                   	push   %eax
     1d1:	68 4b 43 00 00       	push   $0x434b
     1d6:	ff 35 a4 63 00 00    	pushl  0x63a4
     1dc:	e8 ff 3d 00 00       	call   3fe0 <printf>
    exit(FAIL_STATUS);
     1e1:	c7 04 24 00 00 00 00 	movl   $0x0,(%esp)
     1e8:	e8 95 3c 00 00       	call   3e82 <exit>
    printf(stdout, "chdir iputdir failed\n");
    exit(FAIL_STATUS);
  }
  if (unlink("../iputdir") < 0)
  {
    printf(stdout, "unlink ../iputdir failed\n");
     1ed:	52                   	push   %edx
     1ee:	52                   	push   %edx
     1ef:	68 2f 43 00 00       	push   $0x432f
     1f4:	ff 35 a4 63 00 00    	pushl  0x63a4
     1fa:	e8 e1 3d 00 00       	call   3fe0 <printf>
    exit(FAIL_STATUS);
     1ff:	c7 04 24 00 00 00 00 	movl   $0x0,(%esp)
     206:	e8 77 3c 00 00       	call   3e82 <exit>
    printf(stdout, "mkdir failed\n");
    exit(FAIL_STATUS);
  }
  if (chdir("iputdir") < 0)
  {
    printf(stdout, "chdir iputdir failed\n");
     20b:	51                   	push   %ecx
     20c:	51                   	push   %ecx
     20d:	68 0e 43 00 00       	push   $0x430e
     212:	ff 35 a4 63 00 00    	pushl  0x63a4
     218:	e8 c3 3d 00 00       	call   3fe0 <printf>
    exit(FAIL_STATUS);
     21d:	c7 04 24 00 00 00 00 	movl   $0x0,(%esp)
     224:	e8 59 3c 00 00       	call   3e82 <exit>
     229:	8d b4 26 00 00 00 00 	lea    0x0(%esi,%eiz,1),%esi

00000230 <exitiputtest>:
  printf(stdout, "iput test ok\n");
}

// does exit() call iput(p->cwd) in a transaction?
void exitiputtest(void)
{
     230:	55                   	push   %ebp
     231:	89 e5                	mov    %esp,%ebp
     233:	83 ec 20             	sub    $0x20,%esp
  int pid;
  int status;

  printf(stdout, "exitiput test\n");
     236:	68 5b 43 00 00       	push   $0x435b
     23b:	ff 35 a4 63 00 00    	pushl  0x63a4
     241:	e8 9a 3d 00 00       	call   3fe0 <printf>

  pid = fork();
     246:	e8 2f 3c 00 00       	call   3e7a <fork>
  if (pid < 0)
     24b:	83 c4 10             	add    $0x10,%esp
     24e:	85 c0                	test   %eax,%eax
     250:	0f 88 a1 00 00 00    	js     2f7 <exitiputtest+0xc7>
  {
    printf(stdout, "fork failed\n");
    exit(FAIL_STATUS);
  }
  if (pid == 0)
     256:	75 58                	jne    2b0 <exitiputtest+0x80>
  {
    if (mkdir("iputdir") < 0)
     258:	83 ec 0c             	sub    $0xc,%esp
     25b:	68 27 43 00 00       	push   $0x4327
     260:	e8 85 3c 00 00       	call   3eea <mkdir>
     265:	83 c4 10             	add    $0x10,%esp
     268:	85 c0                	test   %eax,%eax
     26a:	0f 88 c3 00 00 00    	js     333 <exitiputtest+0x103>
    {
      printf(stdout, "mkdir failed\n");
      exit(FAIL_STATUS);
    }
    if (chdir("iputdir") < 0)
     270:	83 ec 0c             	sub    $0xc,%esp
     273:	68 27 43 00 00       	push   $0x4327
     278:	e8 75 3c 00 00       	call   3ef2 <chdir>
     27d:	83 c4 10             	add    $0x10,%esp
     280:	85 c0                	test   %eax,%eax
     282:	0f 88 8d 00 00 00    	js     315 <exitiputtest+0xe5>
    {
      printf(stdout, "child chdir failed\n");
      exit(FAIL_STATUS);
    }
    if (unlink("../iputdir") < 0)
     288:	83 ec 0c             	sub    $0xc,%esp
     28b:	68 24 43 00 00       	push   $0x4324
     290:	e8 3d 3c 00 00       	call   3ed2 <unlink>
     295:	83 c4 10             	add    $0x10,%esp
     298:	85 c0                	test   %eax,%eax
     29a:	78 3c                	js     2d8 <exitiputtest+0xa8>
    {
      printf(stdout, "unlink ../iputdir failed\n");
      exit(FAIL_STATUS);
    }
    exit(PASS_STATUS);
     29c:	83 ec 0c             	sub    $0xc,%esp
     29f:	6a 01                	push   $0x1
     2a1:	e8 dc 3b 00 00       	call   3e82 <exit>
     2a6:	8d 76 00             	lea    0x0(%esi),%esi
     2a9:	8d bc 27 00 00 00 00 	lea    0x0(%edi,%eiz,1),%edi
  }
  wait(&status);
     2b0:	8d 45 f4             	lea    -0xc(%ebp),%eax
     2b3:	83 ec 0c             	sub    $0xc,%esp
     2b6:	50                   	push   %eax
     2b7:	e8 ce 3b 00 00       	call   3e8a <wait>
  printf(stdout, "exitiput test ok\n");
     2bc:	58                   	pop    %eax
     2bd:	5a                   	pop    %edx
     2be:	68 7e 43 00 00       	push   $0x437e
     2c3:	ff 35 a4 63 00 00    	pushl  0x63a4
     2c9:	e8 12 3d 00 00       	call   3fe0 <printf>
}
     2ce:	83 c4 10             	add    $0x10,%esp
     2d1:	c9                   	leave  
     2d2:	c3                   	ret    
     2d3:	90                   	nop
     2d4:	8d 74 26 00          	lea    0x0(%esi,%eiz,1),%esi
      printf(stdout, "child chdir failed\n");
      exit(FAIL_STATUS);
    }
    if (unlink("../iputdir") < 0)
    {
      printf(stdout, "unlink ../iputdir failed\n");
     2d8:	83 ec 08             	sub    $0x8,%esp
     2db:	68 2f 43 00 00       	push   $0x432f
     2e0:	ff 35 a4 63 00 00    	pushl  0x63a4
     2e6:	e8 f5 3c 00 00       	call   3fe0 <printf>
      exit(FAIL_STATUS);
     2eb:	c7 04 24 00 00 00 00 	movl   $0x0,(%esp)
     2f2:	e8 8b 3b 00 00       	call   3e82 <exit>
  printf(stdout, "exitiput test\n");

  pid = fork();
  if (pid < 0)
  {
    printf(stdout, "fork failed\n");
     2f7:	50                   	push   %eax
     2f8:	50                   	push   %eax
     2f9:	68 41 52 00 00       	push   $0x5241
     2fe:	ff 35 a4 63 00 00    	pushl  0x63a4
     304:	e8 d7 3c 00 00       	call   3fe0 <printf>
    exit(FAIL_STATUS);
     309:	c7 04 24 00 00 00 00 	movl   $0x0,(%esp)
     310:	e8 6d 3b 00 00       	call   3e82 <exit>
      printf(stdout, "mkdir failed\n");
      exit(FAIL_STATUS);
    }
    if (chdir("iputdir") < 0)
    {
      printf(stdout, "child chdir failed\n");
     315:	51                   	push   %ecx
     316:	51                   	push   %ecx
     317:	68 6a 43 00 00       	push   $0x436a
     31c:	ff 35 a4 63 00 00    	pushl  0x63a4
     322:	e8 b9 3c 00 00       	call   3fe0 <printf>
      exit(FAIL_STATUS);
     327:	c7 04 24 00 00 00 00 	movl   $0x0,(%esp)
     32e:	e8 4f 3b 00 00       	call   3e82 <exit>
  }
  if (pid == 0)
  {
    if (mkdir("iputdir") < 0)
    {
      printf(stdout, "mkdir failed\n");
     333:	50                   	push   %eax
     334:	50                   	push   %eax
     335:	68 00 43 00 00       	push   $0x4300
     33a:	ff 35 a4 63 00 00    	pushl  0x63a4
     340:	e8 9b 3c 00 00       	call   3fe0 <printf>
      exit(FAIL_STATUS);
     345:	c7 04 24 00 00 00 00 	movl   $0x0,(%esp)
     34c:	e8 31 3b 00 00       	call   3e82 <exit>
     351:	eb 0d                	jmp    360 <openiputtest>
     353:	90                   	nop
     354:	90                   	nop
     355:	90                   	nop
     356:	90                   	nop
     357:	90                   	nop
     358:	90                   	nop
     359:	90                   	nop
     35a:	90                   	nop
     35b:	90                   	nop
     35c:	90                   	nop
     35d:	90                   	nop
     35e:	90                   	nop
     35f:	90                   	nop

00000360 <openiputtest>:
//      int i;
//      for(i = 0; i < 10000; i++)
//        yield();
//    }
void openiputtest(void)
{
     360:	55                   	push   %ebp
     361:	89 e5                	mov    %esp,%ebp
     363:	83 ec 20             	sub    $0x20,%esp
  int pid;
  int status;

  printf(stdout, "openiput test\n");
     366:	68 90 43 00 00       	push   $0x4390
     36b:	ff 35 a4 63 00 00    	pushl  0x63a4
     371:	e8 6a 3c 00 00       	call   3fe0 <printf>
  if (mkdir("oidir") < 0)
     376:	c7 04 24 9f 43 00 00 	movl   $0x439f,(%esp)
     37d:	e8 68 3b 00 00       	call   3eea <mkdir>
     382:	83 c4 10             	add    $0x10,%esp
     385:	85 c0                	test   %eax,%eax
     387:	0f 88 9d 00 00 00    	js     42a <openiputtest+0xca>
  {
    printf(stdout, "mkdir oidir failed\n");
    exit(FAIL_STATUS);
  }
  pid = fork();
     38d:	e8 e8 3a 00 00       	call   3e7a <fork>
  if (pid < 0)
     392:	85 c0                	test   %eax,%eax
     394:	0f 88 ae 00 00 00    	js     448 <openiputtest+0xe8>
  {
    printf(stdout, "fork failed\n");
    exit(FAIL_STATUS);
  }
  if (pid == 0)
     39a:	75 3c                	jne    3d8 <openiputtest+0x78>
  {
    int fd = open("oidir", O_RDWR);
     39c:	83 ec 08             	sub    $0x8,%esp
     39f:	6a 02                	push   $0x2
     3a1:	68 9f 43 00 00       	push   $0x439f
     3a6:	e8 17 3b 00 00       	call   3ec2 <open>
    if (fd >= 0)
     3ab:	83 c4 10             	add    $0x10,%esp
     3ae:	85 c0                	test   %eax,%eax
     3b0:	78 6e                	js     420 <openiputtest+0xc0>
    {
      printf(stdout, "open directory for write succeeded\n");
     3b2:	83 ec 08             	sub    $0x8,%esp
     3b5:	68 24 53 00 00       	push   $0x5324
     3ba:	ff 35 a4 63 00 00    	pushl  0x63a4
     3c0:	e8 1b 3c 00 00       	call   3fe0 <printf>
      exit(PASS_STATUS);
     3c5:	c7 04 24 01 00 00 00 	movl   $0x1,(%esp)
     3cc:	e8 b1 3a 00 00       	call   3e82 <exit>
     3d1:	8d b4 26 00 00 00 00 	lea    0x0(%esi,%eiz,1),%esi
    }
    exit(PASS_STATUS);
  }
  sleep(1);
     3d8:	83 ec 0c             	sub    $0xc,%esp
     3db:	6a 01                	push   $0x1
     3dd:	e8 30 3b 00 00       	call   3f12 <sleep>
  if (unlink("oidir") != 0)
     3e2:	c7 04 24 9f 43 00 00 	movl   $0x439f,(%esp)
     3e9:	e8 e4 3a 00 00       	call   3ed2 <unlink>
     3ee:	83 c4 10             	add    $0x10,%esp
     3f1:	85 c0                	test   %eax,%eax
     3f3:	75 71                	jne    466 <openiputtest+0x106>
  {
    printf(stdout, "unlink failed\n");
    exit(FAIL_STATUS);
  }
  wait(&status);
     3f5:	8d 45 f4             	lea    -0xc(%ebp),%eax
     3f8:	83 ec 0c             	sub    $0xc,%esp
     3fb:	50                   	push   %eax
     3fc:	e8 89 3a 00 00       	call   3e8a <wait>
  printf(stdout, "openiput test ok\n");
     401:	58                   	pop    %eax
     402:	5a                   	pop    %edx
     403:	68 c8 43 00 00       	push   $0x43c8
     408:	ff 35 a4 63 00 00    	pushl  0x63a4
     40e:	e8 cd 3b 00 00       	call   3fe0 <printf>
}
     413:	83 c4 10             	add    $0x10,%esp
     416:	c9                   	leave  
     417:	c3                   	ret    
     418:	90                   	nop
     419:	8d b4 26 00 00 00 00 	lea    0x0(%esi,%eiz,1),%esi
    if (fd >= 0)
    {
      printf(stdout, "open directory for write succeeded\n");
      exit(PASS_STATUS);
    }
    exit(PASS_STATUS);
     420:	83 ec 0c             	sub    $0xc,%esp
     423:	6a 01                	push   $0x1
     425:	e8 58 3a 00 00       	call   3e82 <exit>
  int status;

  printf(stdout, "openiput test\n");
  if (mkdir("oidir") < 0)
  {
    printf(stdout, "mkdir oidir failed\n");
     42a:	50                   	push   %eax
     42b:	50                   	push   %eax
     42c:	68 a5 43 00 00       	push   $0x43a5
     431:	ff 35 a4 63 00 00    	pushl  0x63a4
     437:	e8 a4 3b 00 00       	call   3fe0 <printf>
    exit(FAIL_STATUS);
     43c:	c7 04 24 00 00 00 00 	movl   $0x0,(%esp)
     443:	e8 3a 3a 00 00       	call   3e82 <exit>
  }
  pid = fork();
  if (pid < 0)
  {
    printf(stdout, "fork failed\n");
     448:	50                   	push   %eax
     449:	50                   	push   %eax
     44a:	68 41 52 00 00       	push   $0x5241
     44f:	ff 35 a4 63 00 00    	pushl  0x63a4
     455:	e8 86 3b 00 00       	call   3fe0 <printf>
    exit(FAIL_STATUS);
     45a:	c7 04 24 00 00 00 00 	movl   $0x0,(%esp)
     461:	e8 1c 3a 00 00       	call   3e82 <exit>
    exit(PASS_STATUS);
  }
  sleep(1);
  if (unlink("oidir") != 0)
  {
    printf(stdout, "unlink failed\n");
     466:	51                   	push   %ecx
     467:	51                   	push   %ecx
     468:	68 b9 43 00 00       	push   $0x43b9
     46d:	ff 35 a4 63 00 00    	pushl  0x63a4
     473:	e8 68 3b 00 00       	call   3fe0 <printf>
    exit(FAIL_STATUS);
     478:	c7 04 24 00 00 00 00 	movl   $0x0,(%esp)
     47f:	e8 fe 39 00 00       	call   3e82 <exit>
     484:	8d b6 00 00 00 00    	lea    0x0(%esi),%esi
     48a:	8d bf 00 00 00 00    	lea    0x0(%edi),%edi

00000490 <opentest>:
}

// simple file system tests

void opentest(void)
{
     490:	55                   	push   %ebp
     491:	89 e5                	mov    %esp,%ebp
     493:	83 ec 10             	sub    $0x10,%esp
  int fd;

  printf(stdout, "open test\n");
     496:	68 da 43 00 00       	push   $0x43da
     49b:	ff 35 a4 63 00 00    	pushl  0x63a4
     4a1:	e8 3a 3b 00 00       	call   3fe0 <printf>
  fd = open("echo", 0);
     4a6:	58                   	pop    %eax
     4a7:	5a                   	pop    %edx
     4a8:	6a 00                	push   $0x0
     4aa:	68 e5 43 00 00       	push   $0x43e5
     4af:	e8 0e 3a 00 00       	call   3ec2 <open>
  if (fd < 0)
     4b4:	83 c4 10             	add    $0x10,%esp
     4b7:	85 c0                	test   %eax,%eax
     4b9:	78 36                	js     4f1 <opentest+0x61>
  {
    printf(stdout, "open echo failed!\n");
    exit(FAIL_STATUS);
  }
  close(fd);
     4bb:	83 ec 0c             	sub    $0xc,%esp
     4be:	50                   	push   %eax
     4bf:	e8 e6 39 00 00       	call   3eaa <close>
  fd = open("doesnotexist", 0);
     4c4:	5a                   	pop    %edx
     4c5:	59                   	pop    %ecx
     4c6:	6a 00                	push   $0x0
     4c8:	68 fd 43 00 00       	push   $0x43fd
     4cd:	e8 f0 39 00 00       	call   3ec2 <open>
  if (fd >= 0)
     4d2:	83 c4 10             	add    $0x10,%esp
     4d5:	85 c0                	test   %eax,%eax
     4d7:	79 36                	jns    50f <opentest+0x7f>
  {
    printf(stdout, "open doesnotexist succeeded!\n");
    exit(PASS_STATUS);
  }
  printf(stdout, "open test ok\n");
     4d9:	83 ec 08             	sub    $0x8,%esp
     4dc:	68 28 44 00 00       	push   $0x4428
     4e1:	ff 35 a4 63 00 00    	pushl  0x63a4
     4e7:	e8 f4 3a 00 00       	call   3fe0 <printf>
}
     4ec:	83 c4 10             	add    $0x10,%esp
     4ef:	c9                   	leave  
     4f0:	c3                   	ret    

  printf(stdout, "open test\n");
  fd = open("echo", 0);
  if (fd < 0)
  {
    printf(stdout, "open echo failed!\n");
     4f1:	50                   	push   %eax
     4f2:	50                   	push   %eax
     4f3:	68 ea 43 00 00       	push   $0x43ea
     4f8:	ff 35 a4 63 00 00    	pushl  0x63a4
     4fe:	e8 dd 3a 00 00       	call   3fe0 <printf>
    exit(FAIL_STATUS);
     503:	c7 04 24 00 00 00 00 	movl   $0x0,(%esp)
     50a:	e8 73 39 00 00       	call   3e82 <exit>
  }
  close(fd);
  fd = open("doesnotexist", 0);
  if (fd >= 0)
  {
    printf(stdout, "open doesnotexist succeeded!\n");
     50f:	50                   	push   %eax
     510:	50                   	push   %eax
     511:	68 0a 44 00 00       	push   $0x440a
     516:	ff 35 a4 63 00 00    	pushl  0x63a4
     51c:	e8 bf 3a 00 00       	call   3fe0 <printf>
    exit(PASS_STATUS);
     521:	c7 04 24 01 00 00 00 	movl   $0x1,(%esp)
     528:	e8 55 39 00 00       	call   3e82 <exit>
     52d:	8d 76 00             	lea    0x0(%esi),%esi

00000530 <writetest>:
  }
  printf(stdout, "open test ok\n");
}

void writetest(void)
{
     530:	55                   	push   %ebp
     531:	89 e5                	mov    %esp,%ebp
     533:	56                   	push   %esi
     534:	53                   	push   %ebx
  int fd;
  int i;

  printf(stdout, "small file test\n");
     535:	83 ec 08             	sub    $0x8,%esp
     538:	68 36 44 00 00       	push   $0x4436
     53d:	ff 35 a4 63 00 00    	pushl  0x63a4
     543:	e8 98 3a 00 00       	call   3fe0 <printf>
  fd = open("small", O_CREATE | O_RDWR);
     548:	59                   	pop    %ecx
     549:	5b                   	pop    %ebx
     54a:	68 02 02 00 00       	push   $0x202
     54f:	68 47 44 00 00       	push   $0x4447
     554:	e8 69 39 00 00       	call   3ec2 <open>
  if (fd >= 0)
     559:	83 c4 10             	add    $0x10,%esp
     55c:	85 c0                	test   %eax,%eax
     55e:	0f 88 b2 01 00 00    	js     716 <writetest+0x1e6>
  {
    printf(stdout, "creat small succeeded; ok\n");
     564:	83 ec 08             	sub    $0x8,%esp
     567:	89 c6                	mov    %eax,%esi
  else
  {
    printf(stdout, "error: creat small failed!\n");
    exit(FAIL_STATUS);
  }
  for (i = 0; i < 100; i++)
     569:	31 db                	xor    %ebx,%ebx

  printf(stdout, "small file test\n");
  fd = open("small", O_CREATE | O_RDWR);
  if (fd >= 0)
  {
    printf(stdout, "creat small succeeded; ok\n");
     56b:	68 4d 44 00 00       	push   $0x444d
     570:	ff 35 a4 63 00 00    	pushl  0x63a4
     576:	e8 65 3a 00 00       	call   3fe0 <printf>
     57b:	83 c4 10             	add    $0x10,%esp
     57e:	66 90                	xchg   %ax,%ax
    printf(stdout, "error: creat small failed!\n");
    exit(FAIL_STATUS);
  }
  for (i = 0; i < 100; i++)
  {
    if (write(fd, "aaaaaaaaaa", 10) != 10)
     580:	83 ec 04             	sub    $0x4,%esp
     583:	6a 0a                	push   $0xa
     585:	68 84 44 00 00       	push   $0x4484
     58a:	56                   	push   %esi
     58b:	e8 12 39 00 00       	call   3ea2 <write>
     590:	83 c4 10             	add    $0x10,%esp
     593:	83 f8 0a             	cmp    $0xa,%eax
     596:	0f 85 dd 00 00 00    	jne    679 <writetest+0x149>
    {
      printf(stdout, "error: write aa %d new file failed\n", i);
      exit(FAIL_STATUS);
    }
    if (write(fd, "bbbbbbbbbb", 10) != 10)
     59c:	83 ec 04             	sub    $0x4,%esp
     59f:	6a 0a                	push   $0xa
     5a1:	68 8f 44 00 00       	push   $0x448f
     5a6:	56                   	push   %esi
     5a7:	e8 f6 38 00 00       	call   3ea2 <write>
     5ac:	83 c4 10             	add    $0x10,%esp
     5af:	83 f8 0a             	cmp    $0xa,%eax
     5b2:	0f 85 e1 00 00 00    	jne    699 <writetest+0x169>
  else
  {
    printf(stdout, "error: creat small failed!\n");
    exit(FAIL_STATUS);
  }
  for (i = 0; i < 100; i++)
     5b8:	83 c3 01             	add    $0x1,%ebx
     5bb:	83 fb 64             	cmp    $0x64,%ebx
     5be:	75 c0                	jne    580 <writetest+0x50>
    {
      printf(stdout, "error: write bb %d new file failed\n", i);
      exit(FAIL_STATUS);
    }
  }
  printf(stdout, "writes ok\n");
     5c0:	83 ec 08             	sub    $0x8,%esp
     5c3:	68 9a 44 00 00       	push   $0x449a
     5c8:	ff 35 a4 63 00 00    	pushl  0x63a4
     5ce:	e8 0d 3a 00 00       	call   3fe0 <printf>
  close(fd);
     5d3:	89 34 24             	mov    %esi,(%esp)
     5d6:	e8 cf 38 00 00       	call   3eaa <close>
  fd = open("small", O_RDONLY);
     5db:	58                   	pop    %eax
     5dc:	5a                   	pop    %edx
     5dd:	6a 00                	push   $0x0
     5df:	68 47 44 00 00       	push   $0x4447
     5e4:	e8 d9 38 00 00       	call   3ec2 <open>
  if (fd >= 0)
     5e9:	83 c4 10             	add    $0x10,%esp
     5ec:	85 c0                	test   %eax,%eax
      exit(FAIL_STATUS);
    }
  }
  printf(stdout, "writes ok\n");
  close(fd);
  fd = open("small", O_RDONLY);
     5ee:	89 c3                	mov    %eax,%ebx
  if (fd >= 0)
     5f0:	0f 88 c3 00 00 00    	js     6b9 <writetest+0x189>
  {
    printf(stdout, "open small succeeded ok\n");
     5f6:	83 ec 08             	sub    $0x8,%esp
     5f9:	68 a5 44 00 00       	push   $0x44a5
     5fe:	ff 35 a4 63 00 00    	pushl  0x63a4
     604:	e8 d7 39 00 00       	call   3fe0 <printf>
  else
  {
    printf(stdout, "error: open small failed!\n");
    exit(FAIL_STATUS);
  }
  i = read(fd, buf, 2000);
     609:	83 c4 0c             	add    $0xc,%esp
     60c:	68 d0 07 00 00       	push   $0x7d0
     611:	68 80 8b 00 00       	push   $0x8b80
     616:	53                   	push   %ebx
     617:	e8 7e 38 00 00       	call   3e9a <read>
  if (i == 2000)
     61c:	83 c4 10             	add    $0x10,%esp
     61f:	3d d0 07 00 00       	cmp    $0x7d0,%eax
     624:	0f 85 ae 00 00 00    	jne    6d8 <writetest+0x1a8>
  {
    printf(stdout, "read succeeded ok\n");
     62a:	83 ec 08             	sub    $0x8,%esp
     62d:	68 d9 44 00 00       	push   $0x44d9
     632:	ff 35 a4 63 00 00    	pushl  0x63a4
     638:	e8 a3 39 00 00       	call   3fe0 <printf>
  else
  {
    printf(stdout, "read failed\n");
    exit(FAIL_STATUS);
  }
  close(fd);
     63d:	89 1c 24             	mov    %ebx,(%esp)
     640:	e8 65 38 00 00       	call   3eaa <close>

  if (unlink("small") < 0)
     645:	c7 04 24 47 44 00 00 	movl   $0x4447,(%esp)
     64c:	e8 81 38 00 00       	call   3ed2 <unlink>
     651:	83 c4 10             	add    $0x10,%esp
     654:	85 c0                	test   %eax,%eax
     656:	0f 88 9b 00 00 00    	js     6f7 <writetest+0x1c7>
  {
    printf(stdout, "unlink small failed\n");
    exit(FAIL_STATUS);
  }
  printf(stdout, "small file test ok\n");
     65c:	83 ec 08             	sub    $0x8,%esp
     65f:	68 01 45 00 00       	push   $0x4501
     664:	ff 35 a4 63 00 00    	pushl  0x63a4
     66a:	e8 71 39 00 00       	call   3fe0 <printf>
}
     66f:	83 c4 10             	add    $0x10,%esp
     672:	8d 65 f8             	lea    -0x8(%ebp),%esp
     675:	5b                   	pop    %ebx
     676:	5e                   	pop    %esi
     677:	5d                   	pop    %ebp
     678:	c3                   	ret    
  }
  for (i = 0; i < 100; i++)
  {
    if (write(fd, "aaaaaaaaaa", 10) != 10)
    {
      printf(stdout, "error: write aa %d new file failed\n", i);
     679:	83 ec 04             	sub    $0x4,%esp
     67c:	53                   	push   %ebx
     67d:	68 48 53 00 00       	push   $0x5348
     682:	ff 35 a4 63 00 00    	pushl  0x63a4
     688:	e8 53 39 00 00       	call   3fe0 <printf>
      exit(FAIL_STATUS);
     68d:	c7 04 24 00 00 00 00 	movl   $0x0,(%esp)
     694:	e8 e9 37 00 00       	call   3e82 <exit>
    }
    if (write(fd, "bbbbbbbbbb", 10) != 10)
    {
      printf(stdout, "error: write bb %d new file failed\n", i);
     699:	83 ec 04             	sub    $0x4,%esp
     69c:	53                   	push   %ebx
     69d:	68 6c 53 00 00       	push   $0x536c
     6a2:	ff 35 a4 63 00 00    	pushl  0x63a4
     6a8:	e8 33 39 00 00       	call   3fe0 <printf>
      exit(FAIL_STATUS);
     6ad:	c7 04 24 00 00 00 00 	movl   $0x0,(%esp)
     6b4:	e8 c9 37 00 00       	call   3e82 <exit>
  {
    printf(stdout, "open small succeeded ok\n");
  }
  else
  {
    printf(stdout, "error: open small failed!\n");
     6b9:	83 ec 08             	sub    $0x8,%esp
     6bc:	68 be 44 00 00       	push   $0x44be
     6c1:	ff 35 a4 63 00 00    	pushl  0x63a4
     6c7:	e8 14 39 00 00       	call   3fe0 <printf>
    exit(FAIL_STATUS);
     6cc:	c7 04 24 00 00 00 00 	movl   $0x0,(%esp)
     6d3:	e8 aa 37 00 00       	call   3e82 <exit>
  {
    printf(stdout, "read succeeded ok\n");
  }
  else
  {
    printf(stdout, "read failed\n");
     6d8:	83 ec 08             	sub    $0x8,%esp
     6db:	68 05 48 00 00       	push   $0x4805
     6e0:	ff 35 a4 63 00 00    	pushl  0x63a4
     6e6:	e8 f5 38 00 00       	call   3fe0 <printf>
    exit(FAIL_STATUS);
     6eb:	c7 04 24 00 00 00 00 	movl   $0x0,(%esp)
     6f2:	e8 8b 37 00 00       	call   3e82 <exit>
  }
  close(fd);

  if (unlink("small") < 0)
  {
    printf(stdout, "unlink small failed\n");
     6f7:	83 ec 08             	sub    $0x8,%esp
     6fa:	68 ec 44 00 00       	push   $0x44ec
     6ff:	ff 35 a4 63 00 00    	pushl  0x63a4
     705:	e8 d6 38 00 00       	call   3fe0 <printf>
    exit(FAIL_STATUS);
     70a:	c7 04 24 00 00 00 00 	movl   $0x0,(%esp)
     711:	e8 6c 37 00 00       	call   3e82 <exit>
  {
    printf(stdout, "creat small succeeded; ok\n");
  }
  else
  {
    printf(stdout, "error: creat small failed!\n");
     716:	83 ec 08             	sub    $0x8,%esp
     719:	68 68 44 00 00       	push   $0x4468
     71e:	ff 35 a4 63 00 00    	pushl  0x63a4
     724:	e8 b7 38 00 00       	call   3fe0 <printf>
    exit(FAIL_STATUS);
     729:	c7 04 24 00 00 00 00 	movl   $0x0,(%esp)
     730:	e8 4d 37 00 00       	call   3e82 <exit>
     735:	8d 74 26 00          	lea    0x0(%esi,%eiz,1),%esi
     739:	8d bc 27 00 00 00 00 	lea    0x0(%edi,%eiz,1),%edi

00000740 <writetest1>:
  }
  printf(stdout, "small file test ok\n");
}

void writetest1(void)
{
     740:	55                   	push   %ebp
     741:	89 e5                	mov    %esp,%ebp
     743:	56                   	push   %esi
     744:	53                   	push   %ebx
  int i, fd, n;

  printf(stdout, "big files test\n");
     745:	83 ec 08             	sub    $0x8,%esp
     748:	68 15 45 00 00       	push   $0x4515
     74d:	ff 35 a4 63 00 00    	pushl  0x63a4
     753:	e8 88 38 00 00       	call   3fe0 <printf>

  fd = open("big", O_CREATE | O_RDWR);
     758:	59                   	pop    %ecx
     759:	5b                   	pop    %ebx
     75a:	68 02 02 00 00       	push   $0x202
     75f:	68 8f 45 00 00       	push   $0x458f
     764:	e8 59 37 00 00       	call   3ec2 <open>
  if (fd < 0)
     769:	83 c4 10             	add    $0x10,%esp
     76c:	85 c0                	test   %eax,%eax
     76e:	0f 88 8b 01 00 00    	js     8ff <writetest1+0x1bf>
     774:	89 c6                	mov    %eax,%esi
     776:	31 db                	xor    %ebx,%ebx
     778:	90                   	nop
     779:	8d b4 26 00 00 00 00 	lea    0x0(%esi,%eiz,1),%esi
  }

  for (i = 0; i < MAXFILE; i++)
  {
    ((int *)buf)[0] = i;
    if (write(fd, buf, 512) != 512)
     780:	83 ec 04             	sub    $0x4,%esp
    exit(FAIL_STATUS);
  }

  for (i = 0; i < MAXFILE; i++)
  {
    ((int *)buf)[0] = i;
     783:	89 1d 80 8b 00 00    	mov    %ebx,0x8b80
    if (write(fd, buf, 512) != 512)
     789:	68 00 02 00 00       	push   $0x200
     78e:	68 80 8b 00 00       	push   $0x8b80
     793:	56                   	push   %esi
     794:	e8 09 37 00 00       	call   3ea2 <write>
     799:	83 c4 10             	add    $0x10,%esp
     79c:	3d 00 02 00 00       	cmp    $0x200,%eax
     7a1:	0f 85 b7 00 00 00    	jne    85e <writetest1+0x11e>
  {
    printf(stdout, "error: creat big failed!\n");
    exit(FAIL_STATUS);
  }

  for (i = 0; i < MAXFILE; i++)
     7a7:	83 c3 01             	add    $0x1,%ebx
     7aa:	81 fb 8c 00 00 00    	cmp    $0x8c,%ebx
     7b0:	75 ce                	jne    780 <writetest1+0x40>
      printf(stdout, "error: write big file failed\n", i);
      exit(FAIL_STATUS);
    }
  }

  close(fd);
     7b2:	83 ec 0c             	sub    $0xc,%esp
     7b5:	56                   	push   %esi
     7b6:	e8 ef 36 00 00       	call   3eaa <close>

  fd = open("big", O_RDONLY);
     7bb:	58                   	pop    %eax
     7bc:	5a                   	pop    %edx
     7bd:	6a 00                	push   $0x0
     7bf:	68 8f 45 00 00       	push   $0x458f
     7c4:	e8 f9 36 00 00       	call   3ec2 <open>
  if (fd < 0)
     7c9:	83 c4 10             	add    $0x10,%esp
     7cc:	85 c0                	test   %eax,%eax
    }
  }

  close(fd);

  fd = open("big", O_RDONLY);
     7ce:	89 c6                	mov    %eax,%esi
  if (fd < 0)
     7d0:	0f 88 0a 01 00 00    	js     8e0 <writetest1+0x1a0>
     7d6:	31 db                	xor    %ebx,%ebx
     7d8:	eb 21                	jmp    7fb <writetest1+0xbb>
     7da:	8d b6 00 00 00 00    	lea    0x0(%esi),%esi
        printf(stdout, "read only %d blocks from big", n);
        exit(PASS_STATUS);
      }
      break;
    }
    else if (i != 512)
     7e0:	3d 00 02 00 00       	cmp    $0x200,%eax
     7e5:	0f 85 b1 00 00 00    	jne    89c <writetest1+0x15c>
    {
      printf(stdout, "read failed %d\n", i);
      exit(FAIL_STATUS);
    }
    if (((int *)buf)[0] != n)
     7eb:	a1 80 8b 00 00       	mov    0x8b80,%eax
     7f0:	39 c3                	cmp    %eax,%ebx
     7f2:	0f 85 86 00 00 00    	jne    87e <writetest1+0x13e>
    {
      printf(stdout, "read content of block %d is %d\n",
             n, ((int *)buf)[0]);
      exit(PASS_STATUS);
    }
    n++;
     7f8:	83 c3 01             	add    $0x1,%ebx
  }

  n = 0;
  for (;;)
  {
    i = read(fd, buf, 512);
     7fb:	83 ec 04             	sub    $0x4,%esp
     7fe:	68 00 02 00 00       	push   $0x200
     803:	68 80 8b 00 00       	push   $0x8b80
     808:	56                   	push   %esi
     809:	e8 8c 36 00 00       	call   3e9a <read>
    if (i == 0)
     80e:	83 c4 10             	add    $0x10,%esp
     811:	85 c0                	test   %eax,%eax
     813:	75 cb                	jne    7e0 <writetest1+0xa0>
    {
      if (n == MAXFILE - 1)
     815:	81 fb 8b 00 00 00    	cmp    $0x8b,%ebx
     81b:	0f 84 9b 00 00 00    	je     8bc <writetest1+0x17c>
             n, ((int *)buf)[0]);
      exit(PASS_STATUS);
    }
    n++;
  }
  close(fd);
     821:	83 ec 0c             	sub    $0xc,%esp
     824:	56                   	push   %esi
     825:	e8 80 36 00 00       	call   3eaa <close>
  if (unlink("big") < 0)
     82a:	c7 04 24 8f 45 00 00 	movl   $0x458f,(%esp)
     831:	e8 9c 36 00 00       	call   3ed2 <unlink>
     836:	83 c4 10             	add    $0x10,%esp
     839:	85 c0                	test   %eax,%eax
     83b:	0f 88 dd 00 00 00    	js     91e <writetest1+0x1de>
  {
    printf(stdout, "unlink big failed\n");
    exit(FAIL_STATUS);
  }
  printf(stdout, "big files ok\n");
     841:	83 ec 08             	sub    $0x8,%esp
     844:	68 b6 45 00 00       	push   $0x45b6
     849:	ff 35 a4 63 00 00    	pushl  0x63a4
     84f:	e8 8c 37 00 00       	call   3fe0 <printf>
}
     854:	83 c4 10             	add    $0x10,%esp
     857:	8d 65 f8             	lea    -0x8(%ebp),%esp
     85a:	5b                   	pop    %ebx
     85b:	5e                   	pop    %esi
     85c:	5d                   	pop    %ebp
     85d:	c3                   	ret    
  for (i = 0; i < MAXFILE; i++)
  {
    ((int *)buf)[0] = i;
    if (write(fd, buf, 512) != 512)
    {
      printf(stdout, "error: write big file failed\n", i);
     85e:	83 ec 04             	sub    $0x4,%esp
     861:	53                   	push   %ebx
     862:	68 3f 45 00 00       	push   $0x453f
     867:	ff 35 a4 63 00 00    	pushl  0x63a4
     86d:	e8 6e 37 00 00       	call   3fe0 <printf>
      exit(FAIL_STATUS);
     872:	c7 04 24 00 00 00 00 	movl   $0x0,(%esp)
     879:	e8 04 36 00 00       	call   3e82 <exit>
      printf(stdout, "read failed %d\n", i);
      exit(FAIL_STATUS);
    }
    if (((int *)buf)[0] != n)
    {
      printf(stdout, "read content of block %d is %d\n",
     87e:	50                   	push   %eax
     87f:	53                   	push   %ebx
     880:	68 90 53 00 00       	push   $0x5390
     885:	ff 35 a4 63 00 00    	pushl  0x63a4
     88b:	e8 50 37 00 00       	call   3fe0 <printf>
             n, ((int *)buf)[0]);
      exit(PASS_STATUS);
     890:	c7 04 24 01 00 00 00 	movl   $0x1,(%esp)
     897:	e8 e6 35 00 00       	call   3e82 <exit>
      }
      break;
    }
    else if (i != 512)
    {
      printf(stdout, "read failed %d\n", i);
     89c:	83 ec 04             	sub    $0x4,%esp
     89f:	50                   	push   %eax
     8a0:	68 93 45 00 00       	push   $0x4593
     8a5:	ff 35 a4 63 00 00    	pushl  0x63a4
     8ab:	e8 30 37 00 00       	call   3fe0 <printf>
      exit(FAIL_STATUS);
     8b0:	c7 04 24 00 00 00 00 	movl   $0x0,(%esp)
     8b7:	e8 c6 35 00 00       	call   3e82 <exit>
    i = read(fd, buf, 512);
    if (i == 0)
    {
      if (n == MAXFILE - 1)
      {
        printf(stdout, "read only %d blocks from big", n);
     8bc:	83 ec 04             	sub    $0x4,%esp
     8bf:	68 8b 00 00 00       	push   $0x8b
     8c4:	68 76 45 00 00       	push   $0x4576
     8c9:	ff 35 a4 63 00 00    	pushl  0x63a4
     8cf:	e8 0c 37 00 00       	call   3fe0 <printf>
        exit(PASS_STATUS);
     8d4:	c7 04 24 01 00 00 00 	movl   $0x1,(%esp)
     8db:	e8 a2 35 00 00       	call   3e82 <exit>
  close(fd);

  fd = open("big", O_RDONLY);
  if (fd < 0)
  {
    printf(stdout, "error: open big failed!\n");
     8e0:	83 ec 08             	sub    $0x8,%esp
     8e3:	68 5d 45 00 00       	push   $0x455d
     8e8:	ff 35 a4 63 00 00    	pushl  0x63a4
     8ee:	e8 ed 36 00 00       	call   3fe0 <printf>
    exit(FAIL_STATUS);
     8f3:	c7 04 24 00 00 00 00 	movl   $0x0,(%esp)
     8fa:	e8 83 35 00 00       	call   3e82 <exit>
  printf(stdout, "big files test\n");

  fd = open("big", O_CREATE | O_RDWR);
  if (fd < 0)
  {
    printf(stdout, "error: creat big failed!\n");
     8ff:	83 ec 08             	sub    $0x8,%esp
     902:	68 25 45 00 00       	push   $0x4525
     907:	ff 35 a4 63 00 00    	pushl  0x63a4
     90d:	e8 ce 36 00 00       	call   3fe0 <printf>
    exit(FAIL_STATUS);
     912:	c7 04 24 00 00 00 00 	movl   $0x0,(%esp)
     919:	e8 64 35 00 00       	call   3e82 <exit>
    n++;
  }
  close(fd);
  if (unlink("big") < 0)
  {
    printf(stdout, "unlink big failed\n");
     91e:	83 ec 08             	sub    $0x8,%esp
     921:	68 a3 45 00 00       	push   $0x45a3
     926:	ff 35 a4 63 00 00    	pushl  0x63a4
     92c:	e8 af 36 00 00       	call   3fe0 <printf>
    exit(FAIL_STATUS);
     931:	c7 04 24 00 00 00 00 	movl   $0x0,(%esp)
     938:	e8 45 35 00 00       	call   3e82 <exit>
     93d:	8d 76 00             	lea    0x0(%esi),%esi

00000940 <createtest>:
  }
  printf(stdout, "big files ok\n");
}

void createtest(void)
{
     940:	55                   	push   %ebp
     941:	89 e5                	mov    %esp,%ebp
     943:	53                   	push   %ebx
  int i, fd;

  printf(stdout, "many creates, followed by unlink test\n");

  name[0] = 'a';
  name[2] = '\0';
     944:	bb 30 00 00 00       	mov    $0x30,%ebx
  }
  printf(stdout, "big files ok\n");
}

void createtest(void)
{
     949:	83 ec 0c             	sub    $0xc,%esp
  int i, fd;

  printf(stdout, "many creates, followed by unlink test\n");
     94c:	68 b0 53 00 00       	push   $0x53b0
     951:	ff 35 a4 63 00 00    	pushl  0x63a4
     957:	e8 84 36 00 00       	call   3fe0 <printf>

  name[0] = 'a';
     95c:	c6 05 80 ab 00 00 61 	movb   $0x61,0xab80
  name[2] = '\0';
     963:	c6 05 82 ab 00 00 00 	movb   $0x0,0xab82
     96a:	83 c4 10             	add    $0x10,%esp
     96d:	8d 76 00             	lea    0x0(%esi),%esi
  for (i = 0; i < 52; i++)
  {
    name[1] = '0' + i;
    fd = open(name, O_CREATE | O_RDWR);
     970:	83 ec 08             	sub    $0x8,%esp

  name[0] = 'a';
  name[2] = '\0';
  for (i = 0; i < 52; i++)
  {
    name[1] = '0' + i;
     973:	88 1d 81 ab 00 00    	mov    %bl,0xab81
     979:	83 c3 01             	add    $0x1,%ebx
    fd = open(name, O_CREATE | O_RDWR);
     97c:	68 02 02 00 00       	push   $0x202
     981:	68 80 ab 00 00       	push   $0xab80
     986:	e8 37 35 00 00       	call   3ec2 <open>
    close(fd);
     98b:	89 04 24             	mov    %eax,(%esp)
     98e:	e8 17 35 00 00       	call   3eaa <close>

  printf(stdout, "many creates, followed by unlink test\n");

  name[0] = 'a';
  name[2] = '\0';
  for (i = 0; i < 52; i++)
     993:	83 c4 10             	add    $0x10,%esp
     996:	80 fb 64             	cmp    $0x64,%bl
     999:	75 d5                	jne    970 <createtest+0x30>
  {
    name[1] = '0' + i;
    fd = open(name, O_CREATE | O_RDWR);
    close(fd);
  }
  name[0] = 'a';
     99b:	c6 05 80 ab 00 00 61 	movb   $0x61,0xab80
  name[2] = '\0';
     9a2:	c6 05 82 ab 00 00 00 	movb   $0x0,0xab82
     9a9:	bb 30 00 00 00       	mov    $0x30,%ebx
     9ae:	66 90                	xchg   %ax,%ax
  for (i = 0; i < 52; i++)
  {
    name[1] = '0' + i;
    unlink(name);
     9b0:	83 ec 0c             	sub    $0xc,%esp
  }
  name[0] = 'a';
  name[2] = '\0';
  for (i = 0; i < 52; i++)
  {
    name[1] = '0' + i;
     9b3:	88 1d 81 ab 00 00    	mov    %bl,0xab81
     9b9:	83 c3 01             	add    $0x1,%ebx
    unlink(name);
     9bc:	68 80 ab 00 00       	push   $0xab80
     9c1:	e8 0c 35 00 00       	call   3ed2 <unlink>
    fd = open(name, O_CREATE | O_RDWR);
    close(fd);
  }
  name[0] = 'a';
  name[2] = '\0';
  for (i = 0; i < 52; i++)
     9c6:	83 c4 10             	add    $0x10,%esp
     9c9:	80 fb 64             	cmp    $0x64,%bl
     9cc:	75 e2                	jne    9b0 <createtest+0x70>
  {
    name[1] = '0' + i;
    unlink(name);
  }
  printf(stdout, "many creates, followed by unlink; ok\n");
     9ce:	83 ec 08             	sub    $0x8,%esp
     9d1:	68 d8 53 00 00       	push   $0x53d8
     9d6:	ff 35 a4 63 00 00    	pushl  0x63a4
     9dc:	e8 ff 35 00 00       	call   3fe0 <printf>
}
     9e1:	83 c4 10             	add    $0x10,%esp
     9e4:	8b 5d fc             	mov    -0x4(%ebp),%ebx
     9e7:	c9                   	leave  
     9e8:	c3                   	ret    
     9e9:	8d b4 26 00 00 00 00 	lea    0x0(%esi,%eiz,1),%esi

000009f0 <dirtest>:

void dirtest(void)
{
     9f0:	55                   	push   %ebp
     9f1:	89 e5                	mov    %esp,%ebp
     9f3:	83 ec 10             	sub    $0x10,%esp
  printf(stdout, "mkdir test\n");
     9f6:	68 c4 45 00 00       	push   $0x45c4
     9fb:	ff 35 a4 63 00 00    	pushl  0x63a4
     a01:	e8 da 35 00 00       	call   3fe0 <printf>

  if (mkdir("dir0") < 0)
     a06:	c7 04 24 d0 45 00 00 	movl   $0x45d0,(%esp)
     a0d:	e8 d8 34 00 00       	call   3eea <mkdir>
     a12:	83 c4 10             	add    $0x10,%esp
     a15:	85 c0                	test   %eax,%eax
     a17:	78 58                	js     a71 <dirtest+0x81>
  {
    printf(stdout, "mkdir failed\n");
    exit(FAIL_STATUS);
  }

  if (chdir("dir0") < 0)
     a19:	83 ec 0c             	sub    $0xc,%esp
     a1c:	68 d0 45 00 00       	push   $0x45d0
     a21:	e8 cc 34 00 00       	call   3ef2 <chdir>
     a26:	83 c4 10             	add    $0x10,%esp
     a29:	85 c0                	test   %eax,%eax
     a2b:	0f 88 9a 00 00 00    	js     acb <dirtest+0xdb>
  {
    printf(stdout, "chdir dir0 failed\n");
    exit(FAIL_STATUS);
  }

  if (chdir("..") < 0)
     a31:	83 ec 0c             	sub    $0xc,%esp
     a34:	68 75 4b 00 00       	push   $0x4b75
     a39:	e8 b4 34 00 00       	call   3ef2 <chdir>
     a3e:	83 c4 10             	add    $0x10,%esp
     a41:	85 c0                	test   %eax,%eax
     a43:	78 68                	js     aad <dirtest+0xbd>
  {
    printf(stdout, "chdir .. failed\n");
    exit(FAIL_STATUS);
  }

  if (unlink("dir0") < 0)
     a45:	83 ec 0c             	sub    $0xc,%esp
     a48:	68 d0 45 00 00       	push   $0x45d0
     a4d:	e8 80 34 00 00       	call   3ed2 <unlink>
     a52:	83 c4 10             	add    $0x10,%esp
     a55:	85 c0                	test   %eax,%eax
     a57:	78 36                	js     a8f <dirtest+0x9f>
  {
    printf(stdout, "unlink dir0 failed\n");
    exit(FAIL_STATUS);
  }
  printf(stdout, "mkdir test ok\n");
     a59:	83 ec 08             	sub    $0x8,%esp
     a5c:	68 0d 46 00 00       	push   $0x460d
     a61:	ff 35 a4 63 00 00    	pushl  0x63a4
     a67:	e8 74 35 00 00       	call   3fe0 <printf>
}
     a6c:	83 c4 10             	add    $0x10,%esp
     a6f:	c9                   	leave  
     a70:	c3                   	ret    
{
  printf(stdout, "mkdir test\n");

  if (mkdir("dir0") < 0)
  {
    printf(stdout, "mkdir failed\n");
     a71:	50                   	push   %eax
     a72:	50                   	push   %eax
     a73:	68 00 43 00 00       	push   $0x4300
     a78:	ff 35 a4 63 00 00    	pushl  0x63a4
     a7e:	e8 5d 35 00 00       	call   3fe0 <printf>
    exit(FAIL_STATUS);
     a83:	c7 04 24 00 00 00 00 	movl   $0x0,(%esp)
     a8a:	e8 f3 33 00 00       	call   3e82 <exit>
    exit(FAIL_STATUS);
  }

  if (unlink("dir0") < 0)
  {
    printf(stdout, "unlink dir0 failed\n");
     a8f:	50                   	push   %eax
     a90:	50                   	push   %eax
     a91:	68 f9 45 00 00       	push   $0x45f9
     a96:	ff 35 a4 63 00 00    	pushl  0x63a4
     a9c:	e8 3f 35 00 00       	call   3fe0 <printf>
    exit(FAIL_STATUS);
     aa1:	c7 04 24 00 00 00 00 	movl   $0x0,(%esp)
     aa8:	e8 d5 33 00 00       	call   3e82 <exit>
    exit(FAIL_STATUS);
  }

  if (chdir("..") < 0)
  {
    printf(stdout, "chdir .. failed\n");
     aad:	52                   	push   %edx
     aae:	52                   	push   %edx
     aaf:	68 e8 45 00 00       	push   $0x45e8
     ab4:	ff 35 a4 63 00 00    	pushl  0x63a4
     aba:	e8 21 35 00 00       	call   3fe0 <printf>
    exit(FAIL_STATUS);
     abf:	c7 04 24 00 00 00 00 	movl   $0x0,(%esp)
     ac6:	e8 b7 33 00 00       	call   3e82 <exit>
    exit(FAIL_STATUS);
  }

  if (chdir("dir0") < 0)
  {
    printf(stdout, "chdir dir0 failed\n");
     acb:	51                   	push   %ecx
     acc:	51                   	push   %ecx
     acd:	68 d5 45 00 00       	push   $0x45d5
     ad2:	ff 35 a4 63 00 00    	pushl  0x63a4
     ad8:	e8 03 35 00 00       	call   3fe0 <printf>
    exit(FAIL_STATUS);
     add:	c7 04 24 00 00 00 00 	movl   $0x0,(%esp)
     ae4:	e8 99 33 00 00       	call   3e82 <exit>
     ae9:	8d b4 26 00 00 00 00 	lea    0x0(%esi,%eiz,1),%esi

00000af0 <exectest>:
  }
  printf(stdout, "mkdir test ok\n");
}

void exectest(void)
{
     af0:	55                   	push   %ebp
     af1:	89 e5                	mov    %esp,%ebp
     af3:	83 ec 10             	sub    $0x10,%esp
  printf(stdout, "exec test\n");
     af6:	68 1c 46 00 00       	push   $0x461c
     afb:	ff 35 a4 63 00 00    	pushl  0x63a4
     b01:	e8 da 34 00 00       	call   3fe0 <printf>
  if (exec("echo", echoargv) < 0)
     b06:	5a                   	pop    %edx
     b07:	59                   	pop    %ecx
     b08:	68 a8 63 00 00       	push   $0x63a8
     b0d:	68 e5 43 00 00       	push   $0x43e5
     b12:	e8 a3 33 00 00       	call   3eba <exec>
     b17:	83 c4 10             	add    $0x10,%esp
     b1a:	85 c0                	test   %eax,%eax
     b1c:	78 02                	js     b20 <exectest+0x30>
  {
    printf(stdout, "exec echo failed\n");
    exit(FAIL_STATUS);
  }
}
     b1e:	c9                   	leave  
     b1f:	c3                   	ret    
void exectest(void)
{
  printf(stdout, "exec test\n");
  if (exec("echo", echoargv) < 0)
  {
    printf(stdout, "exec echo failed\n");
     b20:	50                   	push   %eax
     b21:	50                   	push   %eax
     b22:	68 27 46 00 00       	push   $0x4627
     b27:	ff 35 a4 63 00 00    	pushl  0x63a4
     b2d:	e8 ae 34 00 00       	call   3fe0 <printf>
    exit(FAIL_STATUS);
     b32:	c7 04 24 00 00 00 00 	movl   $0x0,(%esp)
     b39:	e8 44 33 00 00       	call   3e82 <exit>
     b3e:	66 90                	xchg   %ax,%ax

00000b40 <pipe1>:
}

// simple fork and pipe read/write

void pipe1(void)
{
     b40:	55                   	push   %ebp
     b41:	89 e5                	mov    %esp,%ebp
     b43:	57                   	push   %edi
     b44:	56                   	push   %esi
     b45:	53                   	push   %ebx
  int fds[2], pid;
  int seq, i, n, cc, total;
  int status;

  if (pipe(fds) != 0)
     b46:	8d 45 e0             	lea    -0x20(%ebp),%eax
}

// simple fork and pipe read/write

void pipe1(void)
{
     b49:	83 ec 38             	sub    $0x38,%esp
  int fds[2], pid;
  int seq, i, n, cc, total;
  int status;

  if (pipe(fds) != 0)
     b4c:	50                   	push   %eax
     b4d:	e8 40 33 00 00       	call   3e92 <pipe>
     b52:	83 c4 10             	add    $0x10,%esp
     b55:	85 c0                	test   %eax,%eax
     b57:	0f 85 4b 01 00 00    	jne    ca8 <pipe1+0x168>
  {
    printf(1, "pipe() failed\n");
    exit(FAIL_STATUS);
  }
  pid = fork();
     b5d:	e8 18 33 00 00       	call   3e7a <fork>
  seq = 0;
  if (pid == 0)
     b62:	83 f8 00             	cmp    $0x0,%eax
     b65:	0f 84 86 00 00 00    	je     bf1 <pipe1+0xb1>
        exit(FAIL_STATUS);
      }
    }
    exit(PASS_STATUS);
  }
  else if (pid > 0)
     b6b:	0f 8e 52 01 00 00    	jle    cc3 <pipe1+0x183>
  {
    close(fds[1]);
     b71:	83 ec 0c             	sub    $0xc,%esp
     b74:	ff 75 e4             	pushl  -0x1c(%ebp)
    total = 0;
    cc = 1;
     b77:	bf 01 00 00 00       	mov    $0x1,%edi
  {
    printf(1, "pipe() failed\n");
    exit(FAIL_STATUS);
  }
  pid = fork();
  seq = 0;
     b7c:	31 db                	xor    %ebx,%ebx
    }
    exit(PASS_STATUS);
  }
  else if (pid > 0)
  {
    close(fds[1]);
     b7e:	e8 27 33 00 00       	call   3eaa <close>
    total = 0;
    cc = 1;
    while ((n = read(fds[0], buf, cc)) > 0)
     b83:	83 c4 10             	add    $0x10,%esp
    exit(PASS_STATUS);
  }
  else if (pid > 0)
  {
    close(fds[1]);
    total = 0;
     b86:	c7 45 d4 00 00 00 00 	movl   $0x0,-0x2c(%ebp)
    cc = 1;
    while ((n = read(fds[0], buf, cc)) > 0)
     b8d:	83 ec 04             	sub    $0x4,%esp
     b90:	57                   	push   %edi
     b91:	68 80 8b 00 00       	push   $0x8b80
     b96:	ff 75 e0             	pushl  -0x20(%ebp)
     b99:	e8 fc 32 00 00       	call   3e9a <read>
     b9e:	83 c4 10             	add    $0x10,%esp
     ba1:	85 c0                	test   %eax,%eax
     ba3:	0f 8e ac 00 00 00    	jle    c55 <pipe1+0x115>
    {
      for (i = 0; i < n; i++)
      {
        if ((buf[i] & 0xff) != (seq++ & 0xff))
     ba9:	89 d9                	mov    %ebx,%ecx
     bab:	8d 34 18             	lea    (%eax,%ebx,1),%esi
     bae:	f7 d9                	neg    %ecx
     bb0:	38 9c 0b 80 8b 00 00 	cmp    %bl,0x8b80(%ebx,%ecx,1)
     bb7:	8d 53 01             	lea    0x1(%ebx),%edx
     bba:	75 1b                	jne    bd7 <pipe1+0x97>
    close(fds[1]);
    total = 0;
    cc = 1;
    while ((n = read(fds[0], buf, cc)) > 0)
    {
      for (i = 0; i < n; i++)
     bbc:	39 f2                	cmp    %esi,%edx
     bbe:	89 d3                	mov    %edx,%ebx
     bc0:	75 ee                	jne    bb0 <pipe1+0x70>
          printf(1, "pipe1 oops 2\n");
          return;
        }
      }
      total += n;
      cc = cc * 2;
     bc2:	01 ff                	add    %edi,%edi
        {
          printf(1, "pipe1 oops 2\n");
          return;
        }
      }
      total += n;
     bc4:	01 45 d4             	add    %eax,-0x2c(%ebp)
     bc7:	b8 00 20 00 00       	mov    $0x2000,%eax
     bcc:	81 ff 00 20 00 00    	cmp    $0x2000,%edi
     bd2:	0f 4f f8             	cmovg  %eax,%edi
     bd5:	eb b6                	jmp    b8d <pipe1+0x4d>
    {
      for (i = 0; i < n; i++)
      {
        if ((buf[i] & 0xff) != (seq++ & 0xff))
        {
          printf(1, "pipe1 oops 2\n");
     bd7:	83 ec 08             	sub    $0x8,%esp
     bda:	68 56 46 00 00       	push   $0x4656
     bdf:	6a 01                	push   $0x1
     be1:	e8 fa 33 00 00       	call   3fe0 <printf>
          return;
     be6:	83 c4 10             	add    $0x10,%esp
  {
    printf(1, "fork() failed\n");
    exit(FAIL_STATUS);
  }
  printf(1, "pipe1 ok\n");
}
     be9:	8d 65 f4             	lea    -0xc(%ebp),%esp
     bec:	5b                   	pop    %ebx
     bed:	5e                   	pop    %esi
     bee:	5f                   	pop    %edi
     bef:	5d                   	pop    %ebp
     bf0:	c3                   	ret    
  }
  pid = fork();
  seq = 0;
  if (pid == 0)
  {
    close(fds[0]);
     bf1:	83 ec 0c             	sub    $0xc,%esp
     bf4:	ff 75 e0             	pushl  -0x20(%ebp)
  {
    printf(1, "pipe() failed\n");
    exit(FAIL_STATUS);
  }
  pid = fork();
  seq = 0;
     bf7:	31 f6                	xor    %esi,%esi
  if (pid == 0)
  {
    close(fds[0]);
     bf9:	e8 ac 32 00 00       	call   3eaa <close>
     bfe:	83 c4 10             	add    $0x10,%esp
    for (n = 0; n < 5; n++)
    {
      for (i = 0; i < 1033; i++)
        buf[i] = seq++;
     c01:	89 f0                	mov    %esi,%eax
     c03:	8d 96 09 04 00 00    	lea    0x409(%esi),%edx
}

// simple fork and pipe read/write

void pipe1(void)
{
     c09:	89 f3                	mov    %esi,%ebx
  {
    close(fds[0]);
    for (n = 0; n < 5; n++)
    {
      for (i = 0; i < 1033; i++)
        buf[i] = seq++;
     c0b:	f7 d8                	neg    %eax
     c0d:	8d 76 00             	lea    0x0(%esi),%esi
     c10:	88 9c 18 80 8b 00 00 	mov    %bl,0x8b80(%eax,%ebx,1)
     c17:	83 c3 01             	add    $0x1,%ebx
  if (pid == 0)
  {
    close(fds[0]);
    for (n = 0; n < 5; n++)
    {
      for (i = 0; i < 1033; i++)
     c1a:	39 d3                	cmp    %edx,%ebx
     c1c:	75 f2                	jne    c10 <pipe1+0xd0>
        buf[i] = seq++;
      if (write(fds[1], buf, 1033) != 1033)
     c1e:	83 ec 04             	sub    $0x4,%esp
     c21:	89 de                	mov    %ebx,%esi
     c23:	68 09 04 00 00       	push   $0x409
     c28:	68 80 8b 00 00       	push   $0x8b80
     c2d:	ff 75 e4             	pushl  -0x1c(%ebp)
     c30:	e8 6d 32 00 00       	call   3ea2 <write>
     c35:	83 c4 10             	add    $0x10,%esp
     c38:	3d 09 04 00 00       	cmp    $0x409,%eax
     c3d:	0f 85 9b 00 00 00    	jne    cde <pipe1+0x19e>
  pid = fork();
  seq = 0;
  if (pid == 0)
  {
    close(fds[0]);
    for (n = 0; n < 5; n++)
     c43:	81 fb 2d 14 00 00    	cmp    $0x142d,%ebx
     c49:	75 b6                	jne    c01 <pipe1+0xc1>
      {
        printf(1, "pipe1 oops 1\n");
        exit(FAIL_STATUS);
      }
    }
    exit(PASS_STATUS);
     c4b:	83 ec 0c             	sub    $0xc,%esp
     c4e:	6a 01                	push   $0x1
     c50:	e8 2d 32 00 00       	call   3e82 <exit>
      total += n;
      cc = cc * 2;
      if (cc > sizeof(buf))
        cc = sizeof(buf);
    }
    if (total != 5 * 1033)
     c55:	81 7d d4 2d 14 00 00 	cmpl   $0x142d,-0x2c(%ebp)
     c5c:	75 2c                	jne    c8a <pipe1+0x14a>
    {
      printf(1, "pipe1 oops 3 total %d\n", total);
      exit(FAIL_STATUS);
    }
    close(fds[0]);
     c5e:	83 ec 0c             	sub    $0xc,%esp
     c61:	ff 75 e0             	pushl  -0x20(%ebp)
     c64:	e8 41 32 00 00       	call   3eaa <close>
    wait(&status);
     c69:	8d 45 dc             	lea    -0x24(%ebp),%eax
     c6c:	89 04 24             	mov    %eax,(%esp)
     c6f:	e8 16 32 00 00       	call   3e8a <wait>
  else
  {
    printf(1, "fork() failed\n");
    exit(FAIL_STATUS);
  }
  printf(1, "pipe1 ok\n");
     c74:	58                   	pop    %eax
     c75:	5a                   	pop    %edx
     c76:	68 7b 46 00 00       	push   $0x467b
     c7b:	6a 01                	push   $0x1
     c7d:	e8 5e 33 00 00       	call   3fe0 <printf>
     c82:	83 c4 10             	add    $0x10,%esp
     c85:	e9 5f ff ff ff       	jmp    be9 <pipe1+0xa9>
      if (cc > sizeof(buf))
        cc = sizeof(buf);
    }
    if (total != 5 * 1033)
    {
      printf(1, "pipe1 oops 3 total %d\n", total);
     c8a:	83 ec 04             	sub    $0x4,%esp
     c8d:	ff 75 d4             	pushl  -0x2c(%ebp)
     c90:	68 64 46 00 00       	push   $0x4664
     c95:	6a 01                	push   $0x1
     c97:	e8 44 33 00 00       	call   3fe0 <printf>
      exit(FAIL_STATUS);
     c9c:	c7 04 24 00 00 00 00 	movl   $0x0,(%esp)
     ca3:	e8 da 31 00 00       	call   3e82 <exit>
  int seq, i, n, cc, total;
  int status;

  if (pipe(fds) != 0)
  {
    printf(1, "pipe() failed\n");
     ca8:	83 ec 08             	sub    $0x8,%esp
     cab:	68 39 46 00 00       	push   $0x4639
     cb0:	6a 01                	push   $0x1
     cb2:	e8 29 33 00 00       	call   3fe0 <printf>
    exit(FAIL_STATUS);
     cb7:	c7 04 24 00 00 00 00 	movl   $0x0,(%esp)
     cbe:	e8 bf 31 00 00       	call   3e82 <exit>
    close(fds[0]);
    wait(&status);
  }
  else
  {
    printf(1, "fork() failed\n");
     cc3:	83 ec 08             	sub    $0x8,%esp
     cc6:	68 85 46 00 00       	push   $0x4685
     ccb:	6a 01                	push   $0x1
     ccd:	e8 0e 33 00 00       	call   3fe0 <printf>
    exit(FAIL_STATUS);
     cd2:	c7 04 24 00 00 00 00 	movl   $0x0,(%esp)
     cd9:	e8 a4 31 00 00       	call   3e82 <exit>
    {
      for (i = 0; i < 1033; i++)
        buf[i] = seq++;
      if (write(fds[1], buf, 1033) != 1033)
      {
        printf(1, "pipe1 oops 1\n");
     cde:	83 ec 08             	sub    $0x8,%esp
     ce1:	68 48 46 00 00       	push   $0x4648
     ce6:	6a 01                	push   $0x1
     ce8:	e8 f3 32 00 00       	call   3fe0 <printf>
        exit(FAIL_STATUS);
     ced:	c7 04 24 00 00 00 00 	movl   $0x0,(%esp)
     cf4:	e8 89 31 00 00       	call   3e82 <exit>
     cf9:	8d b4 26 00 00 00 00 	lea    0x0(%esi,%eiz,1),%esi

00000d00 <preempt>:
  printf(1, "pipe1 ok\n");
}

// meant to be run w/ at most two CPUs
void preempt(void)
{
     d00:	55                   	push   %ebp
     d01:	89 e5                	mov    %esp,%ebp
     d03:	57                   	push   %edi
     d04:	56                   	push   %esi
     d05:	53                   	push   %ebx
     d06:	83 ec 24             	sub    $0x24,%esp
  int pid1, pid2, pid3;
  int pfds[2];
  int status;

  printf(1, "preempt: ");
     d09:	68 94 46 00 00       	push   $0x4694
     d0e:	6a 01                	push   $0x1
     d10:	e8 cb 32 00 00       	call   3fe0 <printf>
  pid1 = fork();
     d15:	e8 60 31 00 00       	call   3e7a <fork>
  if (pid1 == 0)
     d1a:	83 c4 10             	add    $0x10,%esp
     d1d:	85 c0                	test   %eax,%eax
     d1f:	75 02                	jne    d23 <preempt+0x23>
     d21:	eb fe                	jmp    d21 <preempt+0x21>
     d23:	89 c7                	mov    %eax,%edi
    for (;;)
      ;

  pid2 = fork();
     d25:	e8 50 31 00 00       	call   3e7a <fork>
  if (pid2 == 0)
     d2a:	85 c0                	test   %eax,%eax
  pid1 = fork();
  if (pid1 == 0)
    for (;;)
      ;

  pid2 = fork();
     d2c:	89 c6                	mov    %eax,%esi
  if (pid2 == 0)
     d2e:	75 02                	jne    d32 <preempt+0x32>
     d30:	eb fe                	jmp    d30 <preempt+0x30>
    for (;;)
      ;

  pipe(pfds);
     d32:	8d 45 e0             	lea    -0x20(%ebp),%eax
     d35:	83 ec 0c             	sub    $0xc,%esp
     d38:	50                   	push   %eax
     d39:	e8 54 31 00 00       	call   3e92 <pipe>
  pid3 = fork();
     d3e:	e8 37 31 00 00       	call   3e7a <fork>
  if (pid3 == 0)
     d43:	83 c4 10             	add    $0x10,%esp
     d46:	85 c0                	test   %eax,%eax
  if (pid2 == 0)
    for (;;)
      ;

  pipe(pfds);
  pid3 = fork();
     d48:	89 c3                	mov    %eax,%ebx
  if (pid3 == 0)
     d4a:	75 47                	jne    d93 <preempt+0x93>
  {
    close(pfds[0]);
     d4c:	83 ec 0c             	sub    $0xc,%esp
     d4f:	ff 75 e0             	pushl  -0x20(%ebp)
     d52:	e8 53 31 00 00       	call   3eaa <close>
    if (write(pfds[1], "x", 1) != 1)
     d57:	83 c4 0c             	add    $0xc,%esp
     d5a:	6a 01                	push   $0x1
     d5c:	68 59 4c 00 00       	push   $0x4c59
     d61:	ff 75 e4             	pushl  -0x1c(%ebp)
     d64:	e8 39 31 00 00       	call   3ea2 <write>
     d69:	83 c4 10             	add    $0x10,%esp
     d6c:	83 f8 01             	cmp    $0x1,%eax
     d6f:	74 12                	je     d83 <preempt+0x83>
      printf(1, "preempt write error");
     d71:	83 ec 08             	sub    $0x8,%esp
     d74:	68 9e 46 00 00       	push   $0x469e
     d79:	6a 01                	push   $0x1
     d7b:	e8 60 32 00 00       	call   3fe0 <printf>
     d80:	83 c4 10             	add    $0x10,%esp
    close(pfds[1]);
     d83:	83 ec 0c             	sub    $0xc,%esp
     d86:	ff 75 e4             	pushl  -0x1c(%ebp)
     d89:	e8 1c 31 00 00       	call   3eaa <close>
     d8e:	83 c4 10             	add    $0x10,%esp
     d91:	eb fe                	jmp    d91 <preempt+0x91>
    for (;;)
      ;
  }

  close(pfds[1]);
     d93:	83 ec 0c             	sub    $0xc,%esp
     d96:	ff 75 e4             	pushl  -0x1c(%ebp)
     d99:	e8 0c 31 00 00       	call   3eaa <close>
  if (read(pfds[0], buf, sizeof(buf)) != 1)
     d9e:	83 c4 0c             	add    $0xc,%esp
     da1:	68 00 20 00 00       	push   $0x2000
     da6:	68 80 8b 00 00       	push   $0x8b80
     dab:	ff 75 e0             	pushl  -0x20(%ebp)
     dae:	e8 e7 30 00 00       	call   3e9a <read>
     db3:	83 c4 10             	add    $0x10,%esp
     db6:	83 f8 01             	cmp    $0x1,%eax
     db9:	74 1a                	je     dd5 <preempt+0xd5>
  {
    printf(1, "preempt read error");
     dbb:	83 ec 08             	sub    $0x8,%esp
     dbe:	68 b2 46 00 00       	push   $0x46b2
     dc3:	6a 01                	push   $0x1
     dc5:	e8 16 32 00 00       	call   3fe0 <printf>
    return;
     dca:	83 c4 10             	add    $0x10,%esp
  printf(1, "wait... ");
  wait(&status);
  wait(&status);
  wait(&status);
  printf(1, "preempt ok\n");
}
     dcd:	8d 65 f4             	lea    -0xc(%ebp),%esp
     dd0:	5b                   	pop    %ebx
     dd1:	5e                   	pop    %esi
     dd2:	5f                   	pop    %edi
     dd3:	5d                   	pop    %ebp
     dd4:	c3                   	ret    
  if (read(pfds[0], buf, sizeof(buf)) != 1)
  {
    printf(1, "preempt read error");
    return;
  }
  close(pfds[0]);
     dd5:	83 ec 0c             	sub    $0xc,%esp
     dd8:	ff 75 e0             	pushl  -0x20(%ebp)
     ddb:	e8 ca 30 00 00       	call   3eaa <close>
  printf(1, "kill... ");
     de0:	58                   	pop    %eax
     de1:	5a                   	pop    %edx
     de2:	68 c5 46 00 00       	push   $0x46c5
     de7:	6a 01                	push   $0x1
     de9:	e8 f2 31 00 00       	call   3fe0 <printf>
  kill(pid1);
     dee:	89 3c 24             	mov    %edi,(%esp)
     df1:	e8 bc 30 00 00       	call   3eb2 <kill>
  kill(pid2);
     df6:	89 34 24             	mov    %esi,(%esp)
     df9:	e8 b4 30 00 00       	call   3eb2 <kill>
  kill(pid3);
     dfe:	89 1c 24             	mov    %ebx,(%esp)
     e01:	e8 ac 30 00 00       	call   3eb2 <kill>
  printf(1, "wait... ");
     e06:	59                   	pop    %ecx
     e07:	5b                   	pop    %ebx
  wait(&status);
     e08:	8d 5d dc             	lea    -0x24(%ebp),%ebx
  close(pfds[0]);
  printf(1, "kill... ");
  kill(pid1);
  kill(pid2);
  kill(pid3);
  printf(1, "wait... ");
     e0b:	68 ce 46 00 00       	push   $0x46ce
     e10:	6a 01                	push   $0x1
     e12:	e8 c9 31 00 00       	call   3fe0 <printf>
  wait(&status);
     e17:	89 1c 24             	mov    %ebx,(%esp)
     e1a:	e8 6b 30 00 00       	call   3e8a <wait>
  wait(&status);
     e1f:	89 1c 24             	mov    %ebx,(%esp)
     e22:	e8 63 30 00 00       	call   3e8a <wait>
  wait(&status);
     e27:	89 1c 24             	mov    %ebx,(%esp)
     e2a:	e8 5b 30 00 00       	call   3e8a <wait>
  printf(1, "preempt ok\n");
     e2f:	5e                   	pop    %esi
     e30:	5f                   	pop    %edi
     e31:	68 d7 46 00 00       	push   $0x46d7
     e36:	6a 01                	push   $0x1
     e38:	e8 a3 31 00 00       	call   3fe0 <printf>
     e3d:	83 c4 10             	add    $0x10,%esp
     e40:	eb 8b                	jmp    dcd <preempt+0xcd>
     e42:	8d b4 26 00 00 00 00 	lea    0x0(%esi,%eiz,1),%esi
     e49:	8d bc 27 00 00 00 00 	lea    0x0(%edi,%eiz,1),%edi

00000e50 <exitwait>:
}

// try to find any races between exit and wait
void exitwait(void)
{
     e50:	55                   	push   %ebp
     e51:	89 e5                	mov    %esp,%ebp
     e53:	57                   	push   %edi
     e54:	56                   	push   %esi
     e55:	53                   	push   %ebx
     e56:	be 64 00 00 00       	mov    $0x64,%esi
      printf(1, "fork failed\n");
      return;
    }
    if (pid)
    {
      if (wait(&status) != pid)
     e5b:	8d 7d e4             	lea    -0x1c(%ebp),%edi
  printf(1, "preempt ok\n");
}

// try to find any races between exit and wait
void exitwait(void)
{
     e5e:	83 ec 1c             	sub    $0x1c,%esp
     e61:	eb 1c                	jmp    e7f <exitwait+0x2f>
     e63:	90                   	nop
     e64:	8d 74 26 00          	lea    0x0(%esi,%eiz,1),%esi
    if (pid < 0)
    {
      printf(1, "fork failed\n");
      return;
    }
    if (pid)
     e68:	74 78                	je     ee2 <exitwait+0x92>
    {
      if (wait(&status) != pid)
     e6a:	83 ec 0c             	sub    $0xc,%esp
     e6d:	57                   	push   %edi
     e6e:	e8 17 30 00 00       	call   3e8a <wait>
     e73:	83 c4 10             	add    $0x10,%esp
     e76:	39 c3                	cmp    %eax,%ebx
     e78:	75 2e                	jne    ea8 <exitwait+0x58>
void exitwait(void)
{
  int i, pid;
  int status;

  for (i = 0; i < 100; i++)
     e7a:	83 ee 01             	sub    $0x1,%esi
     e7d:	74 49                	je     ec8 <exitwait+0x78>
  {
    pid = fork();
     e7f:	e8 f6 2f 00 00       	call   3e7a <fork>
    if (pid < 0)
     e84:	85 c0                	test   %eax,%eax
  int i, pid;
  int status;

  for (i = 0; i < 100; i++)
  {
    pid = fork();
     e86:	89 c3                	mov    %eax,%ebx
    if (pid < 0)
     e88:	79 de                	jns    e68 <exitwait+0x18>
    {
      printf(1, "fork failed\n");
     e8a:	83 ec 08             	sub    $0x8,%esp
     e8d:	68 41 52 00 00       	push   $0x5241
     e92:	6a 01                	push   $0x1
     e94:	e8 47 31 00 00       	call   3fe0 <printf>
      return;
     e99:	83 c4 10             	add    $0x10,%esp
    {
      exit(PASS_STATUS);
    }
  }
  printf(1, "exitwait ok\n");
}
     e9c:	8d 65 f4             	lea    -0xc(%ebp),%esp
     e9f:	5b                   	pop    %ebx
     ea0:	5e                   	pop    %esi
     ea1:	5f                   	pop    %edi
     ea2:	5d                   	pop    %ebp
     ea3:	c3                   	ret    
     ea4:	8d 74 26 00          	lea    0x0(%esi,%eiz,1),%esi
    }
    if (pid)
    {
      if (wait(&status) != pid)
      {
        printf(1, "wait wrong pid\n");
     ea8:	83 ec 08             	sub    $0x8,%esp
     eab:	68 e3 46 00 00       	push   $0x46e3
     eb0:	6a 01                	push   $0x1
     eb2:	e8 29 31 00 00       	call   3fe0 <printf>
        return;
     eb7:	83 c4 10             	add    $0x10,%esp
    {
      exit(PASS_STATUS);
    }
  }
  printf(1, "exitwait ok\n");
}
     eba:	8d 65 f4             	lea    -0xc(%ebp),%esp
     ebd:	5b                   	pop    %ebx
     ebe:	5e                   	pop    %esi
     ebf:	5f                   	pop    %edi
     ec0:	5d                   	pop    %ebp
     ec1:	c3                   	ret    
     ec2:	8d b6 00 00 00 00    	lea    0x0(%esi),%esi
    else
    {
      exit(PASS_STATUS);
    }
  }
  printf(1, "exitwait ok\n");
     ec8:	83 ec 08             	sub    $0x8,%esp
     ecb:	68 f3 46 00 00       	push   $0x46f3
     ed0:	6a 01                	push   $0x1
     ed2:	e8 09 31 00 00       	call   3fe0 <printf>
     ed7:	83 c4 10             	add    $0x10,%esp
}
     eda:	8d 65 f4             	lea    -0xc(%ebp),%esp
     edd:	5b                   	pop    %ebx
     ede:	5e                   	pop    %esi
     edf:	5f                   	pop    %edi
     ee0:	5d                   	pop    %ebp
     ee1:	c3                   	ret    
        return;
      }
    }
    else
    {
      exit(PASS_STATUS);
     ee2:	83 ec 0c             	sub    $0xc,%esp
     ee5:	6a 01                	push   $0x1
     ee7:	e8 96 2f 00 00       	call   3e82 <exit>
     eec:	8d 74 26 00          	lea    0x0(%esi,%eiz,1),%esi

00000ef0 <mem>:
  }
  printf(1, "exitwait ok\n");
}

void mem(void)
{
     ef0:	55                   	push   %ebp
     ef1:	89 e5                	mov    %esp,%ebp
     ef3:	57                   	push   %edi
     ef4:	56                   	push   %esi
     ef5:	53                   	push   %ebx
     ef6:	83 ec 24             	sub    $0x24,%esp
  void *m1, *m2;
  int pid, ppid;
  int status;

  printf(1, "mem test\n");
     ef9:	68 00 47 00 00       	push   $0x4700
     efe:	6a 01                	push   $0x1
     f00:	e8 db 30 00 00       	call   3fe0 <printf>
  ppid = getpid();
     f05:	e8 f8 2f 00 00       	call   3f02 <getpid>
     f0a:	89 c6                	mov    %eax,%esi
  if ((pid = fork()) == 0)
     f0c:	e8 69 2f 00 00       	call   3e7a <fork>
     f11:	83 c4 10             	add    $0x10,%esp
     f14:	85 c0                	test   %eax,%eax
     f16:	75 78                	jne    f90 <mem+0xa0>
     f18:	31 db                	xor    %ebx,%ebx
     f1a:	eb 08                	jmp    f24 <mem+0x34>
     f1c:	8d 74 26 00          	lea    0x0(%esi,%eiz,1),%esi
  {
    m1 = 0;
    while ((m2 = malloc(10001)) != 0)
    {
      *(char **)m2 = m1;
     f20:	89 18                	mov    %ebx,(%eax)
     f22:	89 c3                	mov    %eax,%ebx
  printf(1, "mem test\n");
  ppid = getpid();
  if ((pid = fork()) == 0)
  {
    m1 = 0;
    while ((m2 = malloc(10001)) != 0)
     f24:	83 ec 0c             	sub    $0xc,%esp
     f27:	68 11 27 00 00       	push   $0x2711
     f2c:	e8 df 32 00 00       	call   4210 <malloc>
     f31:	83 c4 10             	add    $0x10,%esp
     f34:	85 c0                	test   %eax,%eax
     f36:	75 e8                	jne    f20 <mem+0x30>
    {
      *(char **)m2 = m1;
      m1 = m2;
    }
    while (m1)
     f38:	85 db                	test   %ebx,%ebx
     f3a:	74 18                	je     f54 <mem+0x64>
     f3c:	8d 74 26 00          	lea    0x0(%esi,%eiz,1),%esi
    {
      m2 = *(char **)m1;
     f40:	8b 3b                	mov    (%ebx),%edi
      free(m1);
     f42:	83 ec 0c             	sub    $0xc,%esp
     f45:	53                   	push   %ebx
     f46:	89 fb                	mov    %edi,%ebx
     f48:	e8 33 32 00 00       	call   4180 <free>
    while ((m2 = malloc(10001)) != 0)
    {
      *(char **)m2 = m1;
      m1 = m2;
    }
    while (m1)
     f4d:	83 c4 10             	add    $0x10,%esp
     f50:	85 db                	test   %ebx,%ebx
     f52:	75 ec                	jne    f40 <mem+0x50>
    {
      m2 = *(char **)m1;
      free(m1);
      m1 = m2;
    }
    m1 = malloc(1024 * 20);
     f54:	83 ec 0c             	sub    $0xc,%esp
     f57:	68 00 50 00 00       	push   $0x5000
     f5c:	e8 af 32 00 00       	call   4210 <malloc>
    if (m1 == 0)
     f61:	83 c4 10             	add    $0x10,%esp
     f64:	85 c0                	test   %eax,%eax
     f66:	74 48                	je     fb0 <mem+0xc0>
    {
      printf(1, "couldn't allocate mem?!!\n");
      kill(ppid);
      exit(FAIL_STATUS);
    }
    free(m1);
     f68:	83 ec 0c             	sub    $0xc,%esp
     f6b:	50                   	push   %eax
     f6c:	e8 0f 32 00 00       	call   4180 <free>
    printf(1, "mem ok\n");
     f71:	58                   	pop    %eax
     f72:	5a                   	pop    %edx
     f73:	68 24 47 00 00       	push   $0x4724
     f78:	6a 01                	push   $0x1
     f7a:	e8 61 30 00 00       	call   3fe0 <printf>
    exit(PASS_STATUS);
     f7f:	c7 04 24 01 00 00 00 	movl   $0x1,(%esp)
     f86:	e8 f7 2e 00 00       	call   3e82 <exit>
     f8b:	90                   	nop
     f8c:	8d 74 26 00          	lea    0x0(%esi,%eiz,1),%esi
  }
  else
  {
    wait(&status);
     f90:	8d 45 e4             	lea    -0x1c(%ebp),%eax
     f93:	83 ec 0c             	sub    $0xc,%esp
     f96:	50                   	push   %eax
     f97:	e8 ee 2e 00 00       	call   3e8a <wait>
  }
}
     f9c:	83 c4 10             	add    $0x10,%esp
     f9f:	8d 65 f4             	lea    -0xc(%ebp),%esp
     fa2:	5b                   	pop    %ebx
     fa3:	5e                   	pop    %esi
     fa4:	5f                   	pop    %edi
     fa5:	5d                   	pop    %ebp
     fa6:	c3                   	ret    
     fa7:	89 f6                	mov    %esi,%esi
     fa9:	8d bc 27 00 00 00 00 	lea    0x0(%edi,%eiz,1),%edi
      m1 = m2;
    }
    m1 = malloc(1024 * 20);
    if (m1 == 0)
    {
      printf(1, "couldn't allocate mem?!!\n");
     fb0:	83 ec 08             	sub    $0x8,%esp
     fb3:	68 0a 47 00 00       	push   $0x470a
     fb8:	6a 01                	push   $0x1
     fba:	e8 21 30 00 00       	call   3fe0 <printf>
      kill(ppid);
     fbf:	89 34 24             	mov    %esi,(%esp)
     fc2:	e8 eb 2e 00 00       	call   3eb2 <kill>
      exit(FAIL_STATUS);
     fc7:	c7 04 24 00 00 00 00 	movl   $0x0,(%esp)
     fce:	e8 af 2e 00 00       	call   3e82 <exit>
     fd3:	8d b6 00 00 00 00    	lea    0x0(%esi),%esi
     fd9:	8d bc 27 00 00 00 00 	lea    0x0(%edi,%eiz,1),%edi

00000fe0 <sharedfd>:
// More file system tests

// two processes write to the same file descriptor
// is the offset shared? does inode locking work?
void sharedfd(void)
{
     fe0:	55                   	push   %ebp
     fe1:	89 e5                	mov    %esp,%ebp
     fe3:	57                   	push   %edi
     fe4:	56                   	push   %esi
     fe5:	53                   	push   %ebx
     fe6:	83 ec 34             	sub    $0x34,%esp
  int fd, pid, i, n, nc, np;
  char buf[10];
  int status;

  printf(1, "sharedfd test\n");
     fe9:	68 2c 47 00 00       	push   $0x472c
     fee:	6a 01                	push   $0x1
     ff0:	e8 eb 2f 00 00       	call   3fe0 <printf>

  unlink("sharedfd");
     ff5:	c7 04 24 3b 47 00 00 	movl   $0x473b,(%esp)
     ffc:	e8 d1 2e 00 00       	call   3ed2 <unlink>
  fd = open("sharedfd", O_CREATE | O_RDWR);
    1001:	5b                   	pop    %ebx
    1002:	5e                   	pop    %esi
    1003:	68 02 02 00 00       	push   $0x202
    1008:	68 3b 47 00 00       	push   $0x473b
    100d:	e8 b0 2e 00 00       	call   3ec2 <open>
  if (fd < 0)
    1012:	83 c4 10             	add    $0x10,%esp
    1015:	85 c0                	test   %eax,%eax
    1017:	0f 88 29 01 00 00    	js     1146 <sharedfd+0x166>
    101d:	89 c7                	mov    %eax,%edi
  {
    printf(1, "fstests: cannot open sharedfd for writing");
    return;
  }
  pid = fork();
  memset(buf, pid == 0 ? 'c' : 'p', sizeof(buf));
    101f:	8d 75 de             	lea    -0x22(%ebp),%esi
    1022:	bb e8 03 00 00       	mov    $0x3e8,%ebx
  if (fd < 0)
  {
    printf(1, "fstests: cannot open sharedfd for writing");
    return;
  }
  pid = fork();
    1027:	e8 4e 2e 00 00       	call   3e7a <fork>
  memset(buf, pid == 0 ? 'c' : 'p', sizeof(buf));
    102c:	83 f8 01             	cmp    $0x1,%eax
  if (fd < 0)
  {
    printf(1, "fstests: cannot open sharedfd for writing");
    return;
  }
  pid = fork();
    102f:	89 45 d4             	mov    %eax,-0x2c(%ebp)
  memset(buf, pid == 0 ? 'c' : 'p', sizeof(buf));
    1032:	19 c0                	sbb    %eax,%eax
    1034:	83 ec 04             	sub    $0x4,%esp
    1037:	83 e0 f3             	and    $0xfffffff3,%eax
    103a:	6a 0a                	push   $0xa
    103c:	83 c0 70             	add    $0x70,%eax
    103f:	50                   	push   %eax
    1040:	56                   	push   %esi
    1041:	e8 aa 2c 00 00       	call   3cf0 <memset>
    1046:	83 c4 10             	add    $0x10,%esp
    1049:	eb 0a                	jmp    1055 <sharedfd+0x75>
    104b:	90                   	nop
    104c:	8d 74 26 00          	lea    0x0(%esi,%eiz,1),%esi
  for (i = 0; i < 1000; i++)
    1050:	83 eb 01             	sub    $0x1,%ebx
    1053:	74 26                	je     107b <sharedfd+0x9b>
  {
    if (write(fd, buf, sizeof(buf)) != sizeof(buf))
    1055:	83 ec 04             	sub    $0x4,%esp
    1058:	6a 0a                	push   $0xa
    105a:	56                   	push   %esi
    105b:	57                   	push   %edi
    105c:	e8 41 2e 00 00       	call   3ea2 <write>
    1061:	83 c4 10             	add    $0x10,%esp
    1064:	83 f8 0a             	cmp    $0xa,%eax
    1067:	74 e7                	je     1050 <sharedfd+0x70>
    {
      printf(1, "fstests: write sharedfd failed\n");
    1069:	83 ec 08             	sub    $0x8,%esp
    106c:	68 2c 54 00 00       	push   $0x542c
    1071:	6a 01                	push   $0x1
    1073:	e8 68 2f 00 00       	call   3fe0 <printf>
      break;
    1078:	83 c4 10             	add    $0x10,%esp
    }
  }
  if (pid == 0)
    107b:	8b 4d d4             	mov    -0x2c(%ebp),%ecx
    107e:	85 c9                	test   %ecx,%ecx
    1080:	0f 84 f4 00 00 00    	je     117a <sharedfd+0x19a>
    exit(FAIL_STATUS);
  else
    wait(&status);
    1086:	8d 45 d8             	lea    -0x28(%ebp),%eax
    1089:	83 ec 0c             	sub    $0xc,%esp
    108c:	31 db                	xor    %ebx,%ebx
    108e:	50                   	push   %eax
    108f:	e8 f6 2d 00 00       	call   3e8a <wait>
  close(fd);
    1094:	89 3c 24             	mov    %edi,(%esp)
    1097:	8d 7d e8             	lea    -0x18(%ebp),%edi
    109a:	e8 0b 2e 00 00       	call   3eaa <close>
  fd = open("sharedfd", 0);
    109f:	58                   	pop    %eax
    10a0:	5a                   	pop    %edx
    10a1:	6a 00                	push   $0x0
    10a3:	68 3b 47 00 00       	push   $0x473b
    10a8:	e8 15 2e 00 00       	call   3ec2 <open>
  if (fd < 0)
    10ad:	83 c4 10             	add    $0x10,%esp
    10b0:	31 d2                	xor    %edx,%edx
    10b2:	85 c0                	test   %eax,%eax
  if (pid == 0)
    exit(FAIL_STATUS);
  else
    wait(&status);
  close(fd);
  fd = open("sharedfd", 0);
    10b4:	89 45 d0             	mov    %eax,-0x30(%ebp)
  if (fd < 0)
    10b7:	0f 88 a3 00 00 00    	js     1160 <sharedfd+0x180>
    10bd:	8d 76 00             	lea    0x0(%esi),%esi
  {
    printf(1, "fstests: cannot open sharedfd for reading\n");
    return;
  }
  nc = np = 0;
  while ((n = read(fd, buf, sizeof(buf))) > 0)
    10c0:	83 ec 04             	sub    $0x4,%esp
    10c3:	89 55 d4             	mov    %edx,-0x2c(%ebp)
    10c6:	6a 0a                	push   $0xa
    10c8:	56                   	push   %esi
    10c9:	ff 75 d0             	pushl  -0x30(%ebp)
    10cc:	e8 c9 2d 00 00       	call   3e9a <read>
    10d1:	83 c4 10             	add    $0x10,%esp
    10d4:	85 c0                	test   %eax,%eax
    10d6:	7e 27                	jle    10ff <sharedfd+0x11f>
    10d8:	89 f0                	mov    %esi,%eax
    10da:	8b 55 d4             	mov    -0x2c(%ebp),%edx
    10dd:	eb 13                	jmp    10f2 <sharedfd+0x112>
    10df:	90                   	nop
    for (i = 0; i < sizeof(buf); i++)
    {
      if (buf[i] == 'c')
        nc++;
      if (buf[i] == 'p')
        np++;
    10e0:	80 f9 70             	cmp    $0x70,%cl
    10e3:	0f 94 c1             	sete   %cl
    10e6:	0f b6 c9             	movzbl %cl,%ecx
    10e9:	01 cb                	add    %ecx,%ebx
    10eb:	83 c0 01             	add    $0x1,%eax
    return;
  }
  nc = np = 0;
  while ((n = read(fd, buf, sizeof(buf))) > 0)
  {
    for (i = 0; i < sizeof(buf); i++)
    10ee:	39 c7                	cmp    %eax,%edi
    10f0:	74 ce                	je     10c0 <sharedfd+0xe0>
    {
      if (buf[i] == 'c')
    10f2:	0f b6 08             	movzbl (%eax),%ecx
    10f5:	80 f9 63             	cmp    $0x63,%cl
    10f8:	75 e6                	jne    10e0 <sharedfd+0x100>
        nc++;
    10fa:	83 c2 01             	add    $0x1,%edx
    10fd:	eb ec                	jmp    10eb <sharedfd+0x10b>
      if (buf[i] == 'p')
        np++;
    }
  }
  close(fd);
    10ff:	83 ec 0c             	sub    $0xc,%esp
    1102:	ff 75 d0             	pushl  -0x30(%ebp)
    1105:	e8 a0 2d 00 00       	call   3eaa <close>
  unlink("sharedfd");
    110a:	c7 04 24 3b 47 00 00 	movl   $0x473b,(%esp)
    1111:	e8 bc 2d 00 00       	call   3ed2 <unlink>
  if (nc == 10000 && np == 10000)
    1116:	8b 55 d4             	mov    -0x2c(%ebp),%edx
    1119:	83 c4 10             	add    $0x10,%esp
    111c:	81 fa 10 27 00 00    	cmp    $0x2710,%edx
    1122:	75 60                	jne    1184 <sharedfd+0x1a4>
    1124:	81 fb 10 27 00 00    	cmp    $0x2710,%ebx
    112a:	75 58                	jne    1184 <sharedfd+0x1a4>
  {
    printf(1, "sharedfd ok\n");
    112c:	83 ec 08             	sub    $0x8,%esp
    112f:	68 44 47 00 00       	push   $0x4744
    1134:	6a 01                	push   $0x1
    1136:	e8 a5 2e 00 00       	call   3fe0 <printf>
    113b:	83 c4 10             	add    $0x10,%esp
  else
  {
    printf(1, "sharedfd oops %d %d\n", nc, np);
    exit(FAIL_STATUS);
  }
}
    113e:	8d 65 f4             	lea    -0xc(%ebp),%esp
    1141:	5b                   	pop    %ebx
    1142:	5e                   	pop    %esi
    1143:	5f                   	pop    %edi
    1144:	5d                   	pop    %ebp
    1145:	c3                   	ret    

  unlink("sharedfd");
  fd = open("sharedfd", O_CREATE | O_RDWR);
  if (fd < 0)
  {
    printf(1, "fstests: cannot open sharedfd for writing");
    1146:	83 ec 08             	sub    $0x8,%esp
    1149:	68 00 54 00 00       	push   $0x5400
    114e:	6a 01                	push   $0x1
    1150:	e8 8b 2e 00 00       	call   3fe0 <printf>
    return;
    1155:	83 c4 10             	add    $0x10,%esp
  else
  {
    printf(1, "sharedfd oops %d %d\n", nc, np);
    exit(FAIL_STATUS);
  }
}
    1158:	8d 65 f4             	lea    -0xc(%ebp),%esp
    115b:	5b                   	pop    %ebx
    115c:	5e                   	pop    %esi
    115d:	5f                   	pop    %edi
    115e:	5d                   	pop    %ebp
    115f:	c3                   	ret    
    wait(&status);
  close(fd);
  fd = open("sharedfd", 0);
  if (fd < 0)
  {
    printf(1, "fstests: cannot open sharedfd for reading\n");
    1160:	83 ec 08             	sub    $0x8,%esp
    1163:	68 4c 54 00 00       	push   $0x544c
    1168:	6a 01                	push   $0x1
    116a:	e8 71 2e 00 00       	call   3fe0 <printf>
    return;
    116f:	83 c4 10             	add    $0x10,%esp
  else
  {
    printf(1, "sharedfd oops %d %d\n", nc, np);
    exit(FAIL_STATUS);
  }
}
    1172:	8d 65 f4             	lea    -0xc(%ebp),%esp
    1175:	5b                   	pop    %ebx
    1176:	5e                   	pop    %esi
    1177:	5f                   	pop    %edi
    1178:	5d                   	pop    %ebp
    1179:	c3                   	ret    
      printf(1, "fstests: write sharedfd failed\n");
      break;
    }
  }
  if (pid == 0)
    exit(FAIL_STATUS);
    117a:	83 ec 0c             	sub    $0xc,%esp
    117d:	6a 00                	push   $0x0
    117f:	e8 fe 2c 00 00       	call   3e82 <exit>
  {
    printf(1, "sharedfd ok\n");
  }
  else
  {
    printf(1, "sharedfd oops %d %d\n", nc, np);
    1184:	53                   	push   %ebx
    1185:	52                   	push   %edx
    1186:	68 51 47 00 00       	push   $0x4751
    118b:	6a 01                	push   $0x1
    118d:	e8 4e 2e 00 00       	call   3fe0 <printf>
    exit(FAIL_STATUS);
    1192:	c7 04 24 00 00 00 00 	movl   $0x0,(%esp)
    1199:	e8 e4 2c 00 00       	call   3e82 <exit>
    119e:	66 90                	xchg   %ax,%ax

000011a0 <fourfiles>:
}

// four processes write different files at the same
// time, to test block allocation.
void fourfiles(void)
{
    11a0:	55                   	push   %ebp
    11a1:	89 e5                	mov    %esp,%ebp
    11a3:	57                   	push   %edi
    11a4:	56                   	push   %esi
    11a5:	53                   	push   %ebx
  int fd, pid, i, j, n, total, pi;
  char *names[] = {"f0", "f1", "f2", "f3"};
  char *fname;
  int status;

  printf(1, "fourfiles test\n");
    11a6:	be 66 47 00 00       	mov    $0x4766,%esi

  for (pi = 0; pi < 4; pi++)
    11ab:	31 db                	xor    %ebx,%ebx
}

// four processes write different files at the same
// time, to test block allocation.
void fourfiles(void)
{
    11ad:	83 ec 44             	sub    $0x44,%esp
  int fd, pid, i, j, n, total, pi;
  char *names[] = {"f0", "f1", "f2", "f3"};
    11b0:	c7 45 d8 66 47 00 00 	movl   $0x4766,-0x28(%ebp)
    11b7:	c7 45 dc af 48 00 00 	movl   $0x48af,-0x24(%ebp)
  char *fname;
  int status;

  printf(1, "fourfiles test\n");
    11be:	68 6c 47 00 00       	push   $0x476c
    11c3:	6a 01                	push   $0x1
// four processes write different files at the same
// time, to test block allocation.
void fourfiles(void)
{
  int fd, pid, i, j, n, total, pi;
  char *names[] = {"f0", "f1", "f2", "f3"};
    11c5:	c7 45 e0 b3 48 00 00 	movl   $0x48b3,-0x20(%ebp)
    11cc:	c7 45 e4 69 47 00 00 	movl   $0x4769,-0x1c(%ebp)
  char *fname;
  int status;

  printf(1, "fourfiles test\n");
    11d3:	e8 08 2e 00 00       	call   3fe0 <printf>
    11d8:	83 c4 10             	add    $0x10,%esp

  for (pi = 0; pi < 4; pi++)
  {
    fname = names[pi];
    unlink(fname);
    11db:	83 ec 0c             	sub    $0xc,%esp
    11de:	56                   	push   %esi
    11df:	e8 ee 2c 00 00       	call   3ed2 <unlink>

    pid = fork();
    11e4:	e8 91 2c 00 00       	call   3e7a <fork>
    if (pid < 0)
    11e9:	83 c4 10             	add    $0x10,%esp
    11ec:	85 c0                	test   %eax,%eax
    11ee:	0f 88 b4 01 00 00    	js     13a8 <fourfiles+0x208>
    {
      printf(1, "fork failed\n");
      exit(FAIL_STATUS);
    }

    if (pid == 0)
    11f4:	0f 84 fa 00 00 00    	je     12f4 <fourfiles+0x154>
  char *fname;
  int status;

  printf(1, "fourfiles test\n");

  for (pi = 0; pi < 4; pi++)
    11fa:	83 c3 01             	add    $0x1,%ebx
    11fd:	83 fb 04             	cmp    $0x4,%ebx
    1200:	74 06                	je     1208 <fourfiles+0x68>
    1202:	8b 74 9d d8          	mov    -0x28(%ebp,%ebx,4),%esi
    1206:	eb d3                	jmp    11db <fourfiles+0x3b>
    }
  }

  for (pi = 0; pi < 4; pi++)
  {
    wait(&status);
    1208:	8d 5d d4             	lea    -0x2c(%ebp),%ebx
    120b:	83 ec 0c             	sub    $0xc,%esp
    120e:	bf 30 00 00 00       	mov    $0x30,%edi
    1213:	53                   	push   %ebx
    1214:	e8 71 2c 00 00       	call   3e8a <wait>
    1219:	89 1c 24             	mov    %ebx,(%esp)
    121c:	e8 69 2c 00 00       	call   3e8a <wait>
    1221:	89 1c 24             	mov    %ebx,(%esp)
    1224:	e8 61 2c 00 00       	call   3e8a <wait>
    1229:	89 1c 24             	mov    %ebx,(%esp)
    122c:	e8 59 2c 00 00       	call   3e8a <wait>
    1231:	83 c4 10             	add    $0x10,%esp
    1234:	c7 45 c4 66 47 00 00 	movl   $0x4766,-0x3c(%ebp)
  }

  for (i = 0; i < 2; i++)
  {
    fname = names[i];
    fd = open(fname, 0);
    123b:	83 ec 08             	sub    $0x8,%esp
    total = 0;
    123e:	31 db                	xor    %ebx,%ebx
  }

  for (i = 0; i < 2; i++)
  {
    fname = names[i];
    fd = open(fname, 0);
    1240:	6a 00                	push   $0x0
    1242:	ff 75 c4             	pushl  -0x3c(%ebp)
    1245:	e8 78 2c 00 00       	call   3ec2 <open>
    total = 0;
    while ((n = read(fd, buf, sizeof(buf))) > 0)
    124a:	83 c4 10             	add    $0x10,%esp
  }

  for (i = 0; i < 2; i++)
  {
    fname = names[i];
    fd = open(fname, 0);
    124d:	89 c6                	mov    %eax,%esi
    124f:	90                   	nop
    total = 0;
    while ((n = read(fd, buf, sizeof(buf))) > 0)
    1250:	83 ec 04             	sub    $0x4,%esp
    1253:	68 00 20 00 00       	push   $0x2000
    1258:	68 80 8b 00 00       	push   $0x8b80
    125d:	56                   	push   %esi
    125e:	e8 37 2c 00 00       	call   3e9a <read>
    1263:	83 c4 10             	add    $0x10,%esp
    1266:	85 c0                	test   %eax,%eax
    1268:	7e 1c                	jle    1286 <fourfiles+0xe6>
    126a:	31 d2                	xor    %edx,%edx
    126c:	8d 74 26 00          	lea    0x0(%esi,%eiz,1),%esi
    {
      for (j = 0; j < n; j++)
      {
        if (buf[j] != '0' + i)
    1270:	0f be 8a 80 8b 00 00 	movsbl 0x8b80(%edx),%ecx
    1277:	39 f9                	cmp    %edi,%ecx
    1279:	75 5e                	jne    12d9 <fourfiles+0x139>
    fname = names[i];
    fd = open(fname, 0);
    total = 0;
    while ((n = read(fd, buf, sizeof(buf))) > 0)
    {
      for (j = 0; j < n; j++)
    127b:	83 c2 01             	add    $0x1,%edx
    127e:	39 d0                	cmp    %edx,%eax
    1280:	75 ee                	jne    1270 <fourfiles+0xd0>
        {
          printf(1, "wrong char\n");
          exit(FAIL_STATUS);
        }
      }
      total += n;
    1282:	01 c3                	add    %eax,%ebx
    1284:	eb ca                	jmp    1250 <fourfiles+0xb0>
    }
    close(fd);
    1286:	83 ec 0c             	sub    $0xc,%esp
    1289:	56                   	push   %esi
    128a:	e8 1b 2c 00 00       	call   3eaa <close>
    if (total != 12 * 500)
    128f:	83 c4 10             	add    $0x10,%esp
    1292:	81 fb 70 17 00 00    	cmp    $0x1770,%ebx
    1298:	0f 85 ee 00 00 00    	jne    138c <fourfiles+0x1ec>
    {
      printf(1, "wrong length %d\n", total);
      exit(FAIL_STATUS);
    }
    unlink(fname);
    129e:	83 ec 0c             	sub    $0xc,%esp
    12a1:	ff 75 c4             	pushl  -0x3c(%ebp)
    12a4:	83 c7 01             	add    $0x1,%edi
    12a7:	e8 26 2c 00 00       	call   3ed2 <unlink>
  for (pi = 0; pi < 4; pi++)
  {
    wait(&status);
  }

  for (i = 0; i < 2; i++)
    12ac:	83 c4 10             	add    $0x10,%esp
    12af:	83 ff 32             	cmp    $0x32,%edi
    12b2:	75 1a                	jne    12ce <fourfiles+0x12e>
      exit(FAIL_STATUS);
    }
    unlink(fname);
  }

  printf(1, "fourfiles ok\n");
    12b4:	83 ec 08             	sub    $0x8,%esp
    12b7:	68 aa 47 00 00       	push   $0x47aa
    12bc:	6a 01                	push   $0x1
    12be:	e8 1d 2d 00 00       	call   3fe0 <printf>
}
    12c3:	83 c4 10             	add    $0x10,%esp
    12c6:	8d 65 f4             	lea    -0xc(%ebp),%esp
    12c9:	5b                   	pop    %ebx
    12ca:	5e                   	pop    %esi
    12cb:	5f                   	pop    %edi
    12cc:	5d                   	pop    %ebp
    12cd:	c3                   	ret    
    12ce:	8b 45 dc             	mov    -0x24(%ebp),%eax
    12d1:	89 45 c4             	mov    %eax,-0x3c(%ebp)
    12d4:	e9 62 ff ff ff       	jmp    123b <fourfiles+0x9b>
    {
      for (j = 0; j < n; j++)
      {
        if (buf[j] != '0' + i)
        {
          printf(1, "wrong char\n");
    12d9:	83 ec 08             	sub    $0x8,%esp
    12dc:	68 8d 47 00 00       	push   $0x478d
    12e1:	6a 01                	push   $0x1
    12e3:	e8 f8 2c 00 00       	call   3fe0 <printf>
          exit(FAIL_STATUS);
    12e8:	c7 04 24 00 00 00 00 	movl   $0x0,(%esp)
    12ef:	e8 8e 2b 00 00       	call   3e82 <exit>
      exit(FAIL_STATUS);
    }

    if (pid == 0)
    {
      fd = open(fname, O_CREATE | O_RDWR);
    12f4:	83 ec 08             	sub    $0x8,%esp
    12f7:	68 02 02 00 00       	push   $0x202
    12fc:	56                   	push   %esi
    12fd:	e8 c0 2b 00 00       	call   3ec2 <open>
      if (fd < 0)
    1302:	83 c4 10             	add    $0x10,%esp
    1305:	85 c0                	test   %eax,%eax
      exit(FAIL_STATUS);
    }

    if (pid == 0)
    {
      fd = open(fname, O_CREATE | O_RDWR);
    1307:	89 c6                	mov    %eax,%esi
      if (fd < 0)
    1309:	78 66                	js     1371 <fourfiles+0x1d1>
      {
        printf(1, "create failed\n");
        exit(FAIL_STATUS);
      }

      memset(buf, '0' + pi, 512);
    130b:	83 ec 04             	sub    $0x4,%esp
    130e:	83 c3 30             	add    $0x30,%ebx
    1311:	68 00 02 00 00       	push   $0x200
    1316:	53                   	push   %ebx
    1317:	bb 0c 00 00 00       	mov    $0xc,%ebx
    131c:	68 80 8b 00 00       	push   $0x8b80
    1321:	e8 ca 29 00 00       	call   3cf0 <memset>
    1326:	83 c4 10             	add    $0x10,%esp
      for (i = 0; i < 12; i++)
      {
        if ((n = write(fd, buf, 500)) != 500)
    1329:	83 ec 04             	sub    $0x4,%esp
    132c:	68 f4 01 00 00       	push   $0x1f4
    1331:	68 80 8b 00 00       	push   $0x8b80
    1336:	56                   	push   %esi
    1337:	e8 66 2b 00 00       	call   3ea2 <write>
    133c:	83 c4 10             	add    $0x10,%esp
    133f:	3d f4 01 00 00       	cmp    $0x1f4,%eax
    1344:	75 0f                	jne    1355 <fourfiles+0x1b5>
        printf(1, "create failed\n");
        exit(FAIL_STATUS);
      }

      memset(buf, '0' + pi, 512);
      for (i = 0; i < 12; i++)
    1346:	83 eb 01             	sub    $0x1,%ebx
    1349:	75 de                	jne    1329 <fourfiles+0x189>
        {
          printf(1, "write failed %d\n", n);
          exit(FAIL_STATUS);
        }
      }
      exit(PASS_STATUS);
    134b:	83 ec 0c             	sub    $0xc,%esp
    134e:	6a 01                	push   $0x1
    1350:	e8 2d 2b 00 00       	call   3e82 <exit>
      memset(buf, '0' + pi, 512);
      for (i = 0; i < 12; i++)
      {
        if ((n = write(fd, buf, 500)) != 500)
        {
          printf(1, "write failed %d\n", n);
    1355:	83 ec 04             	sub    $0x4,%esp
    1358:	50                   	push   %eax
    1359:	68 7c 47 00 00       	push   $0x477c
    135e:	6a 01                	push   $0x1
    1360:	e8 7b 2c 00 00       	call   3fe0 <printf>
          exit(FAIL_STATUS);
    1365:	c7 04 24 00 00 00 00 	movl   $0x0,(%esp)
    136c:	e8 11 2b 00 00       	call   3e82 <exit>
    if (pid == 0)
    {
      fd = open(fname, O_CREATE | O_RDWR);
      if (fd < 0)
      {
        printf(1, "create failed\n");
    1371:	83 ec 08             	sub    $0x8,%esp
    1374:	68 07 4a 00 00       	push   $0x4a07
    1379:	6a 01                	push   $0x1
    137b:	e8 60 2c 00 00       	call   3fe0 <printf>
        exit(FAIL_STATUS);
    1380:	c7 04 24 00 00 00 00 	movl   $0x0,(%esp)
    1387:	e8 f6 2a 00 00       	call   3e82 <exit>
      total += n;
    }
    close(fd);
    if (total != 12 * 500)
    {
      printf(1, "wrong length %d\n", total);
    138c:	83 ec 04             	sub    $0x4,%esp
    138f:	53                   	push   %ebx
    1390:	68 99 47 00 00       	push   $0x4799
    1395:	6a 01                	push   $0x1
    1397:	e8 44 2c 00 00       	call   3fe0 <printf>
      exit(FAIL_STATUS);
    139c:	c7 04 24 00 00 00 00 	movl   $0x0,(%esp)
    13a3:	e8 da 2a 00 00       	call   3e82 <exit>
    unlink(fname);

    pid = fork();
    if (pid < 0)
    {
      printf(1, "fork failed\n");
    13a8:	83 ec 08             	sub    $0x8,%esp
    13ab:	68 41 52 00 00       	push   $0x5241
    13b0:	6a 01                	push   $0x1
    13b2:	e8 29 2c 00 00       	call   3fe0 <printf>
      exit(FAIL_STATUS);
    13b7:	c7 04 24 00 00 00 00 	movl   $0x0,(%esp)
    13be:	e8 bf 2a 00 00       	call   3e82 <exit>
    13c3:	8d b6 00 00 00 00    	lea    0x0(%esi),%esi
    13c9:	8d bc 27 00 00 00 00 	lea    0x0(%edi,%eiz,1),%edi

000013d0 <createdelete>:
  printf(1, "fourfiles ok\n");
}

// four processes create and delete different files in same directory
void createdelete(void)
{
    13d0:	55                   	push   %ebp
    13d1:	89 e5                	mov    %esp,%ebp
    13d3:	57                   	push   %edi
    13d4:	56                   	push   %esi
    13d5:	53                   	push   %ebx
  char name[32];
  int status;

  printf(1, "createdelete test\n");

  for (pi = 0; pi < 4; pi++)
    13d6:	31 db                	xor    %ebx,%ebx
  printf(1, "fourfiles ok\n");
}

// four processes create and delete different files in same directory
void createdelete(void)
{
    13d8:	83 ec 54             	sub    $0x54,%esp
  };
  int pid, i, fd, pi;
  char name[32];
  int status;

  printf(1, "createdelete test\n");
    13db:	68 b8 47 00 00       	push   $0x47b8
    13e0:	6a 01                	push   $0x1
    13e2:	e8 f9 2b 00 00       	call   3fe0 <printf>
    13e7:	83 c4 10             	add    $0x10,%esp

  for (pi = 0; pi < 4; pi++)
  {
    pid = fork();
    13ea:	e8 8b 2a 00 00       	call   3e7a <fork>
    if (pid < 0)
    13ef:	85 c0                	test   %eax,%eax
    13f1:	0f 88 da 01 00 00    	js     15d1 <createdelete+0x201>
    {
      printf(1, "fork failed\n");
      exit(FAIL_STATUS);
    }

    if (pid == 0)
    13f7:	0f 84 06 01 00 00    	je     1503 <createdelete+0x133>
  char name[32];
  int status;

  printf(1, "createdelete test\n");

  for (pi = 0; pi < 4; pi++)
    13fd:	83 c3 01             	add    $0x1,%ebx
    1400:	83 fb 04             	cmp    $0x4,%ebx
    1403:	75 e5                	jne    13ea <createdelete+0x1a>
    }
  }

  for (pi = 0; pi < 4; pi++)
  {
    wait(&status);
    1405:	8d 5d c4             	lea    -0x3c(%ebp),%ebx
    1408:	83 ec 0c             	sub    $0xc,%esp
    140b:	8d 7d c8             	lea    -0x38(%ebp),%edi
  }

  name[0] = name[1] = name[2] = 0;
  for (i = 0; i < N; i++)
    140e:	31 f6                	xor    %esi,%esi
    }
  }

  for (pi = 0; pi < 4; pi++)
  {
    wait(&status);
    1410:	53                   	push   %ebx
    1411:	e8 74 2a 00 00       	call   3e8a <wait>
    1416:	89 1c 24             	mov    %ebx,(%esp)
    1419:	e8 6c 2a 00 00       	call   3e8a <wait>
    141e:	89 1c 24             	mov    %ebx,(%esp)
    1421:	e8 64 2a 00 00       	call   3e8a <wait>
    1426:	89 1c 24             	mov    %ebx,(%esp)
    1429:	e8 5c 2a 00 00       	call   3e8a <wait>
  }

  name[0] = name[1] = name[2] = 0;
    142e:	c6 45 ca 00          	movb   $0x0,-0x36(%ebp)
    1432:	83 c4 10             	add    $0x10,%esp
    1435:	8d 76 00             	lea    0x0(%esi),%esi
    1438:	8d 46 30             	lea    0x30(%esi),%eax
    143b:	83 fe 09             	cmp    $0x9,%esi
    }

    if (pid == 0)
    {
      name[0] = 'p' + pi;
      name[2] = '\0';
    143e:	bb 70 00 00 00       	mov    $0x70,%ebx
    1443:	0f 9f c2             	setg   %dl
    1446:	85 f6                	test   %esi,%esi
    1448:	88 45 b7             	mov    %al,-0x49(%ebp)
    144b:	0f 94 c0             	sete   %al
    144e:	09 c2                	or     %eax,%edx
      if ((i == 0 || i >= N / 2) && fd < 0)
      {
        printf(1, "oops createdelete %s didn't exist\n", name);
        exit(FAIL_STATUS);
      }
      else if ((i >= 1 && i < N / 2) && fd >= 0)
    1450:	8d 46 ff             	lea    -0x1(%esi),%eax
    1453:	88 55 b6             	mov    %dl,-0x4a(%ebp)
    1456:	89 45 b0             	mov    %eax,-0x50(%ebp)
  for (i = 0; i < N; i++)
  {
    for (pi = 0; pi < 4; pi++)
    {
      name[0] = 'p' + pi;
      name[1] = '0' + i;
    1459:	0f b6 45 b7          	movzbl -0x49(%ebp),%eax
      fd = open(name, 0);
    145d:	83 ec 08             	sub    $0x8,%esp
  name[0] = name[1] = name[2] = 0;
  for (i = 0; i < N; i++)
  {
    for (pi = 0; pi < 4; pi++)
    {
      name[0] = 'p' + pi;
    1460:	88 5d c8             	mov    %bl,-0x38(%ebp)
      name[1] = '0' + i;
      fd = open(name, 0);
    1463:	6a 00                	push   $0x0
    1465:	57                   	push   %edi
  for (i = 0; i < N; i++)
  {
    for (pi = 0; pi < 4; pi++)
    {
      name[0] = 'p' + pi;
      name[1] = '0' + i;
    1466:	88 45 c9             	mov    %al,-0x37(%ebp)
      fd = open(name, 0);
    1469:	e8 54 2a 00 00       	call   3ec2 <open>
      if ((i == 0 || i >= N / 2) && fd < 0)
    146e:	89 c1                	mov    %eax,%ecx
    1470:	83 c4 10             	add    $0x10,%esp
    1473:	c1 e9 1f             	shr    $0x1f,%ecx
    1476:	84 c9                	test   %cl,%cl
    1478:	74 0a                	je     1484 <createdelete+0xb4>
    147a:	80 7d b6 00          	cmpb   $0x0,-0x4a(%ebp)
    147e:	0f 85 16 01 00 00    	jne    159a <createdelete+0x1ca>
      {
        printf(1, "oops createdelete %s didn't exist\n", name);
        exit(FAIL_STATUS);
      }
      else if ((i >= 1 && i < N / 2) && fd >= 0)
    1484:	83 7d b0 08          	cmpl   $0x8,-0x50(%ebp)
    1488:	0f 86 5e 01 00 00    	jbe    15ec <createdelete+0x21c>
      {
        printf(1, "oops createdelete %s did exist\n", name);
        exit(FAIL_STATUS);
      }
      if (fd >= 0)
    148e:	85 c0                	test   %eax,%eax
    1490:	78 0c                	js     149e <createdelete+0xce>
        close(fd);
    1492:	83 ec 0c             	sub    $0xc,%esp
    1495:	50                   	push   %eax
    1496:	e8 0f 2a 00 00       	call   3eaa <close>
    149b:	83 c4 10             	add    $0x10,%esp
    149e:	83 c3 01             	add    $0x1,%ebx
  }

  name[0] = name[1] = name[2] = 0;
  for (i = 0; i < N; i++)
  {
    for (pi = 0; pi < 4; pi++)
    14a1:	80 fb 74             	cmp    $0x74,%bl
    14a4:	75 b3                	jne    1459 <createdelete+0x89>
  {
    wait(&status);
  }

  name[0] = name[1] = name[2] = 0;
  for (i = 0; i < N; i++)
    14a6:	83 c6 01             	add    $0x1,%esi
    14a9:	83 fe 14             	cmp    $0x14,%esi
    14ac:	75 8a                	jne    1438 <createdelete+0x68>
    14ae:	be 70 00 00 00       	mov    $0x70,%esi
    14b3:	90                   	nop
    14b4:	8d 74 26 00          	lea    0x0(%esi,%eiz,1),%esi
    14b8:	8d 46 c0             	lea    -0x40(%esi),%eax
    14bb:	bb 04 00 00 00       	mov    $0x4,%ebx
    14c0:	88 45 b7             	mov    %al,-0x49(%ebp)

  for (i = 0; i < N; i++)
  {
    for (pi = 0; pi < 4; pi++)
    {
      name[0] = 'p' + i;
    14c3:	89 f0                	mov    %esi,%eax
      name[1] = '0' + i;
      unlink(name);
    14c5:	83 ec 0c             	sub    $0xc,%esp

  for (i = 0; i < N; i++)
  {
    for (pi = 0; pi < 4; pi++)
    {
      name[0] = 'p' + i;
    14c8:	88 45 c8             	mov    %al,-0x38(%ebp)
      name[1] = '0' + i;
    14cb:	0f b6 45 b7          	movzbl -0x49(%ebp),%eax
      unlink(name);
    14cf:	57                   	push   %edi
  for (i = 0; i < N; i++)
  {
    for (pi = 0; pi < 4; pi++)
    {
      name[0] = 'p' + i;
      name[1] = '0' + i;
    14d0:	88 45 c9             	mov    %al,-0x37(%ebp)
      unlink(name);
    14d3:	e8 fa 29 00 00       	call   3ed2 <unlink>
    }
  }

  for (i = 0; i < N; i++)
  {
    for (pi = 0; pi < 4; pi++)
    14d8:	83 c4 10             	add    $0x10,%esp
    14db:	83 eb 01             	sub    $0x1,%ebx
    14de:	75 e3                	jne    14c3 <createdelete+0xf3>
    14e0:	83 c6 01             	add    $0x1,%esi
      if (fd >= 0)
        close(fd);
    }
  }

  for (i = 0; i < N; i++)
    14e3:	89 f0                	mov    %esi,%eax
    14e5:	3c 84                	cmp    $0x84,%al
    14e7:	75 cf                	jne    14b8 <createdelete+0xe8>
      name[1] = '0' + i;
      unlink(name);
    }
  }

  printf(1, "createdelete ok\n");
    14e9:	83 ec 08             	sub    $0x8,%esp
    14ec:	68 cb 47 00 00       	push   $0x47cb
    14f1:	6a 01                	push   $0x1
    14f3:	e8 e8 2a 00 00       	call   3fe0 <printf>
}
    14f8:	83 c4 10             	add    $0x10,%esp
    14fb:	8d 65 f4             	lea    -0xc(%ebp),%esp
    14fe:	5b                   	pop    %ebx
    14ff:	5e                   	pop    %esi
    1500:	5f                   	pop    %edi
    1501:	5d                   	pop    %ebp
    1502:	c3                   	ret    
      exit(FAIL_STATUS);
    }

    if (pid == 0)
    {
      name[0] = 'p' + pi;
    1503:	83 c3 70             	add    $0x70,%ebx
      name[2] = '\0';
    1506:	c6 45 ca 00          	movb   $0x0,-0x36(%ebp)
    150a:	be 01 00 00 00       	mov    $0x1,%esi
      exit(FAIL_STATUS);
    }

    if (pid == 0)
    {
      name[0] = 'p' + pi;
    150f:	88 5d c8             	mov    %bl,-0x38(%ebp)
    1512:	8d 7d c8             	lea    -0x38(%ebp),%edi
      name[2] = '\0';
    1515:	31 db                	xor    %ebx,%ebx
    1517:	eb 12                	jmp    152b <createdelete+0x15b>
    1519:	8d b4 26 00 00 00 00 	lea    0x0(%esi,%eiz,1),%esi
      for (i = 0; i < N; i++)
    1520:	83 fe 14             	cmp    $0x14,%esi
    1523:	74 6b                	je     1590 <createdelete+0x1c0>
    1525:	83 c3 01             	add    $0x1,%ebx
    1528:	83 c6 01             	add    $0x1,%esi
      {
        name[1] = '0' + i;
        fd = open(name, O_CREATE | O_RDWR);
    152b:	83 ec 08             	sub    $0x8,%esp
    {
      name[0] = 'p' + pi;
      name[2] = '\0';
      for (i = 0; i < N; i++)
      {
        name[1] = '0' + i;
    152e:	8d 43 30             	lea    0x30(%ebx),%eax
        fd = open(name, O_CREATE | O_RDWR);
    1531:	68 02 02 00 00       	push   $0x202
    1536:	57                   	push   %edi
    {
      name[0] = 'p' + pi;
      name[2] = '\0';
      for (i = 0; i < N; i++)
      {
        name[1] = '0' + i;
    1537:	88 45 c9             	mov    %al,-0x37(%ebp)
        fd = open(name, O_CREATE | O_RDWR);
    153a:	e8 83 29 00 00       	call   3ec2 <open>
        if (fd < 0)
    153f:	83 c4 10             	add    $0x10,%esp
    1542:	85 c0                	test   %eax,%eax
    1544:	78 70                	js     15b6 <createdelete+0x1e6>
        {
          printf(1, "create failed\n");
          exit(FAIL_STATUS);
        }
        close(fd);
    1546:	83 ec 0c             	sub    $0xc,%esp
    1549:	50                   	push   %eax
    154a:	e8 5b 29 00 00       	call   3eaa <close>
        if (i > 0 && (i % 2) == 0)
    154f:	83 c4 10             	add    $0x10,%esp
    1552:	85 db                	test   %ebx,%ebx
    1554:	74 cf                	je     1525 <createdelete+0x155>
    1556:	f6 c3 01             	test   $0x1,%bl
    1559:	75 c5                	jne    1520 <createdelete+0x150>
        {
          name[1] = '0' + (i / 2);
          if (unlink(name) < 0)
    155b:	83 ec 0c             	sub    $0xc,%esp
          exit(FAIL_STATUS);
        }
        close(fd);
        if (i > 0 && (i % 2) == 0)
        {
          name[1] = '0' + (i / 2);
    155e:	89 d8                	mov    %ebx,%eax
    1560:	d1 f8                	sar    %eax
          if (unlink(name) < 0)
    1562:	57                   	push   %edi
          exit(FAIL_STATUS);
        }
        close(fd);
        if (i > 0 && (i % 2) == 0)
        {
          name[1] = '0' + (i / 2);
    1563:	83 c0 30             	add    $0x30,%eax
    1566:	88 45 c9             	mov    %al,-0x37(%ebp)
          if (unlink(name) < 0)
    1569:	e8 64 29 00 00       	call   3ed2 <unlink>
    156e:	83 c4 10             	add    $0x10,%esp
    1571:	85 c0                	test   %eax,%eax
    1573:	79 ab                	jns    1520 <createdelete+0x150>
          {
            printf(1, "unlink failed\n");
    1575:	83 ec 08             	sub    $0x8,%esp
    1578:	68 b9 43 00 00       	push   $0x43b9
    157d:	6a 01                	push   $0x1
    157f:	e8 5c 2a 00 00       	call   3fe0 <printf>
            exit(FAIL_STATUS);
    1584:	c7 04 24 00 00 00 00 	movl   $0x0,(%esp)
    158b:	e8 f2 28 00 00       	call   3e82 <exit>
          }
        }
      }
      exit(PASS_STATUS);
    1590:	83 ec 0c             	sub    $0xc,%esp
    1593:	6a 01                	push   $0x1
    1595:	e8 e8 28 00 00       	call   3e82 <exit>
      name[0] = 'p' + pi;
      name[1] = '0' + i;
      fd = open(name, 0);
      if ((i == 0 || i >= N / 2) && fd < 0)
      {
        printf(1, "oops createdelete %s didn't exist\n", name);
    159a:	83 ec 04             	sub    $0x4,%esp
    159d:	57                   	push   %edi
    159e:	68 78 54 00 00       	push   $0x5478
    15a3:	6a 01                	push   $0x1
    15a5:	e8 36 2a 00 00       	call   3fe0 <printf>
        exit(FAIL_STATUS);
    15aa:	c7 04 24 00 00 00 00 	movl   $0x0,(%esp)
    15b1:	e8 cc 28 00 00       	call   3e82 <exit>
      {
        name[1] = '0' + i;
        fd = open(name, O_CREATE | O_RDWR);
        if (fd < 0)
        {
          printf(1, "create failed\n");
    15b6:	83 ec 08             	sub    $0x8,%esp
    15b9:	68 07 4a 00 00       	push   $0x4a07
    15be:	6a 01                	push   $0x1
    15c0:	e8 1b 2a 00 00       	call   3fe0 <printf>
          exit(FAIL_STATUS);
    15c5:	c7 04 24 00 00 00 00 	movl   $0x0,(%esp)
    15cc:	e8 b1 28 00 00       	call   3e82 <exit>
  for (pi = 0; pi < 4; pi++)
  {
    pid = fork();
    if (pid < 0)
    {
      printf(1, "fork failed\n");
    15d1:	83 ec 08             	sub    $0x8,%esp
    15d4:	68 41 52 00 00       	push   $0x5241
    15d9:	6a 01                	push   $0x1
    15db:	e8 00 2a 00 00       	call   3fe0 <printf>
      exit(FAIL_STATUS);
    15e0:	c7 04 24 00 00 00 00 	movl   $0x0,(%esp)
    15e7:	e8 96 28 00 00       	call   3e82 <exit>
      if ((i == 0 || i >= N / 2) && fd < 0)
      {
        printf(1, "oops createdelete %s didn't exist\n", name);
        exit(FAIL_STATUS);
      }
      else if ((i >= 1 && i < N / 2) && fd >= 0)
    15ec:	85 c0                	test   %eax,%eax
    15ee:	0f 88 aa fe ff ff    	js     149e <createdelete+0xce>
      {
        printf(1, "oops createdelete %s did exist\n", name);
    15f4:	83 ec 04             	sub    $0x4,%esp
    15f7:	57                   	push   %edi
    15f8:	68 9c 54 00 00       	push   $0x549c
    15fd:	6a 01                	push   $0x1
    15ff:	e8 dc 29 00 00       	call   3fe0 <printf>
        exit(FAIL_STATUS);
    1604:	c7 04 24 00 00 00 00 	movl   $0x0,(%esp)
    160b:	e8 72 28 00 00       	call   3e82 <exit>

00001610 <unlinkread>:
  printf(1, "createdelete ok\n");
}

// can I unlink a file and still read it?
void unlinkread(void)
{
    1610:	55                   	push   %ebp
    1611:	89 e5                	mov    %esp,%ebp
    1613:	56                   	push   %esi
    1614:	53                   	push   %ebx
  int fd, fd1;

  printf(1, "unlinkread test\n");
    1615:	83 ec 08             	sub    $0x8,%esp
    1618:	68 dc 47 00 00       	push   $0x47dc
    161d:	6a 01                	push   $0x1
    161f:	e8 bc 29 00 00       	call   3fe0 <printf>
  fd = open("unlinkread", O_CREATE | O_RDWR);
    1624:	5b                   	pop    %ebx
    1625:	5e                   	pop    %esi
    1626:	68 02 02 00 00       	push   $0x202
    162b:	68 ed 47 00 00       	push   $0x47ed
    1630:	e8 8d 28 00 00       	call   3ec2 <open>
  if (fd < 0)
    1635:	83 c4 10             	add    $0x10,%esp
    1638:	85 c0                	test   %eax,%eax
    163a:	0f 88 e6 00 00 00    	js     1726 <unlinkread+0x116>
  {
    printf(1, "create unlinkread failed\n");
    exit(FAIL_STATUS);
  }
  write(fd, "hello", 5);
    1640:	83 ec 04             	sub    $0x4,%esp
    1643:	89 c3                	mov    %eax,%ebx
    1645:	6a 05                	push   $0x5
    1647:	68 12 48 00 00       	push   $0x4812
    164c:	50                   	push   %eax
    164d:	e8 50 28 00 00       	call   3ea2 <write>
  close(fd);
    1652:	89 1c 24             	mov    %ebx,(%esp)
    1655:	e8 50 28 00 00       	call   3eaa <close>

  fd = open("unlinkread", O_RDWR);
    165a:	58                   	pop    %eax
    165b:	5a                   	pop    %edx
    165c:	6a 02                	push   $0x2
    165e:	68 ed 47 00 00       	push   $0x47ed
    1663:	e8 5a 28 00 00       	call   3ec2 <open>
  if (fd < 0)
    1668:	83 c4 10             	add    $0x10,%esp
    166b:	85 c0                	test   %eax,%eax
    exit(FAIL_STATUS);
  }
  write(fd, "hello", 5);
  close(fd);

  fd = open("unlinkread", O_RDWR);
    166d:	89 c3                	mov    %eax,%ebx
  if (fd < 0)
    166f:	0f 88 33 01 00 00    	js     17a8 <unlinkread+0x198>
  {
    printf(1, "open unlinkread failed\n");
    exit(FAIL_STATUS);
  }
  if (unlink("unlinkread") != 0)
    1675:	83 ec 0c             	sub    $0xc,%esp
    1678:	68 ed 47 00 00       	push   $0x47ed
    167d:	e8 50 28 00 00       	call   3ed2 <unlink>
    1682:	83 c4 10             	add    $0x10,%esp
    1685:	85 c0                	test   %eax,%eax
    1687:	0f 85 01 01 00 00    	jne    178e <unlinkread+0x17e>
  {
    printf(1, "unlink unlinkread failed\n");
    exit(FAIL_STATUS);
  }

  fd1 = open("unlinkread", O_CREATE | O_RDWR);
    168d:	83 ec 08             	sub    $0x8,%esp
    1690:	68 02 02 00 00       	push   $0x202
    1695:	68 ed 47 00 00       	push   $0x47ed
    169a:	e8 23 28 00 00       	call   3ec2 <open>
  write(fd1, "yyy", 3);
    169f:	83 c4 0c             	add    $0xc,%esp
  {
    printf(1, "unlink unlinkread failed\n");
    exit(FAIL_STATUS);
  }

  fd1 = open("unlinkread", O_CREATE | O_RDWR);
    16a2:	89 c6                	mov    %eax,%esi
  write(fd1, "yyy", 3);
    16a4:	6a 03                	push   $0x3
    16a6:	68 4a 48 00 00       	push   $0x484a
    16ab:	50                   	push   %eax
    16ac:	e8 f1 27 00 00       	call   3ea2 <write>
  close(fd1);
    16b1:	89 34 24             	mov    %esi,(%esp)
    16b4:	e8 f1 27 00 00       	call   3eaa <close>

  if (read(fd, buf, sizeof(buf)) != 5)
    16b9:	83 c4 0c             	add    $0xc,%esp
    16bc:	68 00 20 00 00       	push   $0x2000
    16c1:	68 80 8b 00 00       	push   $0x8b80
    16c6:	53                   	push   %ebx
    16c7:	e8 ce 27 00 00       	call   3e9a <read>
    16cc:	83 c4 10             	add    $0x10,%esp
    16cf:	83 f8 05             	cmp    $0x5,%eax
    16d2:	0f 85 9c 00 00 00    	jne    1774 <unlinkread+0x164>
  {
    printf(1, "unlinkread read failed");
    exit(FAIL_STATUS);
  }
  if (buf[0] != 'h')
    16d8:	80 3d 80 8b 00 00 68 	cmpb   $0x68,0x8b80
    16df:	75 79                	jne    175a <unlinkread+0x14a>
  {
    printf(1, "unlinkread wrong data\n");
    exit(FAIL_STATUS);
  }
  if (write(fd, buf, 10) != 10)
    16e1:	83 ec 04             	sub    $0x4,%esp
    16e4:	6a 0a                	push   $0xa
    16e6:	68 80 8b 00 00       	push   $0x8b80
    16eb:	53                   	push   %ebx
    16ec:	e8 b1 27 00 00       	call   3ea2 <write>
    16f1:	83 c4 10             	add    $0x10,%esp
    16f4:	83 f8 0a             	cmp    $0xa,%eax
    16f7:	75 47                	jne    1740 <unlinkread+0x130>
  {
    printf(1, "unlinkread write failed\n");
    exit(FAIL_STATUS);
  }
  close(fd);
    16f9:	83 ec 0c             	sub    $0xc,%esp
    16fc:	53                   	push   %ebx
    16fd:	e8 a8 27 00 00       	call   3eaa <close>
  unlink("unlinkread");
    1702:	c7 04 24 ed 47 00 00 	movl   $0x47ed,(%esp)
    1709:	e8 c4 27 00 00       	call   3ed2 <unlink>
  printf(1, "unlinkread ok\n");
    170e:	58                   	pop    %eax
    170f:	5a                   	pop    %edx
    1710:	68 95 48 00 00       	push   $0x4895
    1715:	6a 01                	push   $0x1
    1717:	e8 c4 28 00 00       	call   3fe0 <printf>
}
    171c:	83 c4 10             	add    $0x10,%esp
    171f:	8d 65 f8             	lea    -0x8(%ebp),%esp
    1722:	5b                   	pop    %ebx
    1723:	5e                   	pop    %esi
    1724:	5d                   	pop    %ebp
    1725:	c3                   	ret    

  printf(1, "unlinkread test\n");
  fd = open("unlinkread", O_CREATE | O_RDWR);
  if (fd < 0)
  {
    printf(1, "create unlinkread failed\n");
    1726:	51                   	push   %ecx
    1727:	51                   	push   %ecx
    1728:	68 f8 47 00 00       	push   $0x47f8
    172d:	6a 01                	push   $0x1
    172f:	e8 ac 28 00 00       	call   3fe0 <printf>
    exit(FAIL_STATUS);
    1734:	c7 04 24 00 00 00 00 	movl   $0x0,(%esp)
    173b:	e8 42 27 00 00       	call   3e82 <exit>
    printf(1, "unlinkread wrong data\n");
    exit(FAIL_STATUS);
  }
  if (write(fd, buf, 10) != 10)
  {
    printf(1, "unlinkread write failed\n");
    1740:	51                   	push   %ecx
    1741:	51                   	push   %ecx
    1742:	68 7c 48 00 00       	push   $0x487c
    1747:	6a 01                	push   $0x1
    1749:	e8 92 28 00 00       	call   3fe0 <printf>
    exit(FAIL_STATUS);
    174e:	c7 04 24 00 00 00 00 	movl   $0x0,(%esp)
    1755:	e8 28 27 00 00       	call   3e82 <exit>
    printf(1, "unlinkread read failed");
    exit(FAIL_STATUS);
  }
  if (buf[0] != 'h')
  {
    printf(1, "unlinkread wrong data\n");
    175a:	53                   	push   %ebx
    175b:	53                   	push   %ebx
    175c:	68 65 48 00 00       	push   $0x4865
    1761:	6a 01                	push   $0x1
    1763:	e8 78 28 00 00       	call   3fe0 <printf>
    exit(FAIL_STATUS);
    1768:	c7 04 24 00 00 00 00 	movl   $0x0,(%esp)
    176f:	e8 0e 27 00 00       	call   3e82 <exit>
  write(fd1, "yyy", 3);
  close(fd1);

  if (read(fd, buf, sizeof(buf)) != 5)
  {
    printf(1, "unlinkread read failed");
    1774:	56                   	push   %esi
    1775:	56                   	push   %esi
    1776:	68 4e 48 00 00       	push   $0x484e
    177b:	6a 01                	push   $0x1
    177d:	e8 5e 28 00 00       	call   3fe0 <printf>
    exit(FAIL_STATUS);
    1782:	c7 04 24 00 00 00 00 	movl   $0x0,(%esp)
    1789:	e8 f4 26 00 00       	call   3e82 <exit>
    printf(1, "open unlinkread failed\n");
    exit(FAIL_STATUS);
  }
  if (unlink("unlinkread") != 0)
  {
    printf(1, "unlink unlinkread failed\n");
    178e:	50                   	push   %eax
    178f:	50                   	push   %eax
    1790:	68 30 48 00 00       	push   $0x4830
    1795:	6a 01                	push   $0x1
    1797:	e8 44 28 00 00       	call   3fe0 <printf>
    exit(FAIL_STATUS);
    179c:	c7 04 24 00 00 00 00 	movl   $0x0,(%esp)
    17a3:	e8 da 26 00 00       	call   3e82 <exit>
  close(fd);

  fd = open("unlinkread", O_RDWR);
  if (fd < 0)
  {
    printf(1, "open unlinkread failed\n");
    17a8:	50                   	push   %eax
    17a9:	50                   	push   %eax
    17aa:	68 18 48 00 00       	push   $0x4818
    17af:	6a 01                	push   $0x1
    17b1:	e8 2a 28 00 00       	call   3fe0 <printf>
    exit(FAIL_STATUS);
    17b6:	c7 04 24 00 00 00 00 	movl   $0x0,(%esp)
    17bd:	e8 c0 26 00 00       	call   3e82 <exit>
    17c2:	8d b4 26 00 00 00 00 	lea    0x0(%esi,%eiz,1),%esi
    17c9:	8d bc 27 00 00 00 00 	lea    0x0(%edi,%eiz,1),%edi

000017d0 <linktest>:
  unlink("unlinkread");
  printf(1, "unlinkread ok\n");
}

void linktest(void)
{
    17d0:	55                   	push   %ebp
    17d1:	89 e5                	mov    %esp,%ebp
    17d3:	53                   	push   %ebx
    17d4:	83 ec 0c             	sub    $0xc,%esp
  int fd;

  printf(1, "linktest\n");
    17d7:	68 a4 48 00 00       	push   $0x48a4
    17dc:	6a 01                	push   $0x1
    17de:	e8 fd 27 00 00       	call   3fe0 <printf>

  unlink("lf1");
    17e3:	c7 04 24 ae 48 00 00 	movl   $0x48ae,(%esp)
    17ea:	e8 e3 26 00 00       	call   3ed2 <unlink>
  unlink("lf2");
    17ef:	c7 04 24 b2 48 00 00 	movl   $0x48b2,(%esp)
    17f6:	e8 d7 26 00 00       	call   3ed2 <unlink>

  fd = open("lf1", O_CREATE | O_RDWR);
    17fb:	58                   	pop    %eax
    17fc:	5a                   	pop    %edx
    17fd:	68 02 02 00 00       	push   $0x202
    1802:	68 ae 48 00 00       	push   $0x48ae
    1807:	e8 b6 26 00 00       	call   3ec2 <open>
  if (fd < 0)
    180c:	83 c4 10             	add    $0x10,%esp
    180f:	85 c0                	test   %eax,%eax
    1811:	0f 88 1e 01 00 00    	js     1935 <linktest+0x165>
  {
    printf(1, "create lf1 failed\n");
    exit(FAIL_STATUS);
  }
  if (write(fd, "hello", 5) != 5)
    1817:	83 ec 04             	sub    $0x4,%esp
    181a:	89 c3                	mov    %eax,%ebx
    181c:	6a 05                	push   $0x5
    181e:	68 12 48 00 00       	push   $0x4812
    1823:	50                   	push   %eax
    1824:	e8 79 26 00 00       	call   3ea2 <write>
    1829:	83 c4 10             	add    $0x10,%esp
    182c:	83 f8 05             	cmp    $0x5,%eax
    182f:	0f 85 d0 01 00 00    	jne    1a05 <linktest+0x235>
  {
    printf(1, "write lf1 failed\n");
    exit(FAIL_STATUS);
  }
  close(fd);
    1835:	83 ec 0c             	sub    $0xc,%esp
    1838:	53                   	push   %ebx
    1839:	e8 6c 26 00 00       	call   3eaa <close>

  if (link("lf1", "lf2") < 0)
    183e:	5b                   	pop    %ebx
    183f:	58                   	pop    %eax
    1840:	68 b2 48 00 00       	push   $0x48b2
    1845:	68 ae 48 00 00       	push   $0x48ae
    184a:	e8 93 26 00 00       	call   3ee2 <link>
    184f:	83 c4 10             	add    $0x10,%esp
    1852:	85 c0                	test   %eax,%eax
    1854:	0f 88 91 01 00 00    	js     19eb <linktest+0x21b>
  {
    printf(1, "link lf1 lf2 failed\n");
    exit(FAIL_STATUS);
  }
  unlink("lf1");
    185a:	83 ec 0c             	sub    $0xc,%esp
    185d:	68 ae 48 00 00       	push   $0x48ae
    1862:	e8 6b 26 00 00       	call   3ed2 <unlink>

  if (open("lf1", 0) >= 0)
    1867:	58                   	pop    %eax
    1868:	5a                   	pop    %edx
    1869:	6a 00                	push   $0x0
    186b:	68 ae 48 00 00       	push   $0x48ae
    1870:	e8 4d 26 00 00       	call   3ec2 <open>
    1875:	83 c4 10             	add    $0x10,%esp
    1878:	85 c0                	test   %eax,%eax
    187a:	0f 89 51 01 00 00    	jns    19d1 <linktest+0x201>
  {
    printf(1, "unlinked lf1 but it is still there!\n");
    exit(FAIL_STATUS);
  }

  fd = open("lf2", 0);
    1880:	83 ec 08             	sub    $0x8,%esp
    1883:	6a 00                	push   $0x0
    1885:	68 b2 48 00 00       	push   $0x48b2
    188a:	e8 33 26 00 00       	call   3ec2 <open>
  if (fd < 0)
    188f:	83 c4 10             	add    $0x10,%esp
    1892:	85 c0                	test   %eax,%eax
  {
    printf(1, "unlinked lf1 but it is still there!\n");
    exit(FAIL_STATUS);
  }

  fd = open("lf2", 0);
    1894:	89 c3                	mov    %eax,%ebx
  if (fd < 0)
    1896:	0f 88 1b 01 00 00    	js     19b7 <linktest+0x1e7>
  {
    printf(1, "open lf2 failed\n");
    exit(FAIL_STATUS);
  }
  if (read(fd, buf, sizeof(buf)) != 5)
    189c:	83 ec 04             	sub    $0x4,%esp
    189f:	68 00 20 00 00       	push   $0x2000
    18a4:	68 80 8b 00 00       	push   $0x8b80
    18a9:	50                   	push   %eax
    18aa:	e8 eb 25 00 00       	call   3e9a <read>
    18af:	83 c4 10             	add    $0x10,%esp
    18b2:	83 f8 05             	cmp    $0x5,%eax
    18b5:	0f 85 e2 00 00 00    	jne    199d <linktest+0x1cd>
  {
    printf(1, "read lf2 failed\n");
    exit(FAIL_STATUS);
  }
  close(fd);
    18bb:	83 ec 0c             	sub    $0xc,%esp
    18be:	53                   	push   %ebx
    18bf:	e8 e6 25 00 00       	call   3eaa <close>

  if (link("lf2", "lf2") >= 0)
    18c4:	58                   	pop    %eax
    18c5:	5a                   	pop    %edx
    18c6:	68 b2 48 00 00       	push   $0x48b2
    18cb:	68 b2 48 00 00       	push   $0x48b2
    18d0:	e8 0d 26 00 00       	call   3ee2 <link>
    18d5:	83 c4 10             	add    $0x10,%esp
    18d8:	85 c0                	test   %eax,%eax
    18da:	0f 89 a3 00 00 00    	jns    1983 <linktest+0x1b3>
  {
    printf(1, "link lf2 lf2 succeeded! oops\n");
    exit(PASS_STATUS);
  }

  unlink("lf2");
    18e0:	83 ec 0c             	sub    $0xc,%esp
    18e3:	68 b2 48 00 00       	push   $0x48b2
    18e8:	e8 e5 25 00 00       	call   3ed2 <unlink>
  if (link("lf2", "lf1") >= 0)
    18ed:	59                   	pop    %ecx
    18ee:	5b                   	pop    %ebx
    18ef:	68 ae 48 00 00       	push   $0x48ae
    18f4:	68 b2 48 00 00       	push   $0x48b2
    18f9:	e8 e4 25 00 00       	call   3ee2 <link>
    18fe:	83 c4 10             	add    $0x10,%esp
    1901:	85 c0                	test   %eax,%eax
    1903:	79 64                	jns    1969 <linktest+0x199>
  {
    printf(1, "link non-existant succeeded! oops\n");
    exit(PASS_STATUS);
  }

  if (link(".", "lf1") >= 0)
    1905:	83 ec 08             	sub    $0x8,%esp
    1908:	68 ae 48 00 00       	push   $0x48ae
    190d:	68 76 4b 00 00       	push   $0x4b76
    1912:	e8 cb 25 00 00       	call   3ee2 <link>
    1917:	83 c4 10             	add    $0x10,%esp
    191a:	85 c0                	test   %eax,%eax
    191c:	79 31                	jns    194f <linktest+0x17f>
  {
    printf(1, "link . lf1 succeeded! oops\n");
    exit(PASS_STATUS);
  }

  printf(1, "linktest ok\n");
    191e:	83 ec 08             	sub    $0x8,%esp
    1921:	68 4c 49 00 00       	push   $0x494c
    1926:	6a 01                	push   $0x1
    1928:	e8 b3 26 00 00       	call   3fe0 <printf>
}
    192d:	83 c4 10             	add    $0x10,%esp
    1930:	8b 5d fc             	mov    -0x4(%ebp),%ebx
    1933:	c9                   	leave  
    1934:	c3                   	ret    
  unlink("lf2");

  fd = open("lf1", O_CREATE | O_RDWR);
  if (fd < 0)
  {
    printf(1, "create lf1 failed\n");
    1935:	50                   	push   %eax
    1936:	50                   	push   %eax
    1937:	68 b6 48 00 00       	push   $0x48b6
    193c:	6a 01                	push   $0x1
    193e:	e8 9d 26 00 00       	call   3fe0 <printf>
    exit(FAIL_STATUS);
    1943:	c7 04 24 00 00 00 00 	movl   $0x0,(%esp)
    194a:	e8 33 25 00 00       	call   3e82 <exit>
    exit(PASS_STATUS);
  }

  if (link(".", "lf1") >= 0)
  {
    printf(1, "link . lf1 succeeded! oops\n");
    194f:	50                   	push   %eax
    1950:	50                   	push   %eax
    1951:	68 30 49 00 00       	push   $0x4930
    1956:	6a 01                	push   $0x1
    1958:	e8 83 26 00 00       	call   3fe0 <printf>
    exit(PASS_STATUS);
    195d:	c7 04 24 01 00 00 00 	movl   $0x1,(%esp)
    1964:	e8 19 25 00 00       	call   3e82 <exit>
  }

  unlink("lf2");
  if (link("lf2", "lf1") >= 0)
  {
    printf(1, "link non-existant succeeded! oops\n");
    1969:	52                   	push   %edx
    196a:	52                   	push   %edx
    196b:	68 e4 54 00 00       	push   $0x54e4
    1970:	6a 01                	push   $0x1
    1972:	e8 69 26 00 00       	call   3fe0 <printf>
    exit(PASS_STATUS);
    1977:	c7 04 24 01 00 00 00 	movl   $0x1,(%esp)
    197e:	e8 ff 24 00 00       	call   3e82 <exit>
  }
  close(fd);

  if (link("lf2", "lf2") >= 0)
  {
    printf(1, "link lf2 lf2 succeeded! oops\n");
    1983:	50                   	push   %eax
    1984:	50                   	push   %eax
    1985:	68 12 49 00 00       	push   $0x4912
    198a:	6a 01                	push   $0x1
    198c:	e8 4f 26 00 00       	call   3fe0 <printf>
    exit(PASS_STATUS);
    1991:	c7 04 24 01 00 00 00 	movl   $0x1,(%esp)
    1998:	e8 e5 24 00 00       	call   3e82 <exit>
    printf(1, "open lf2 failed\n");
    exit(FAIL_STATUS);
  }
  if (read(fd, buf, sizeof(buf)) != 5)
  {
    printf(1, "read lf2 failed\n");
    199d:	51                   	push   %ecx
    199e:	51                   	push   %ecx
    199f:	68 01 49 00 00       	push   $0x4901
    19a4:	6a 01                	push   $0x1
    19a6:	e8 35 26 00 00       	call   3fe0 <printf>
    exit(FAIL_STATUS);
    19ab:	c7 04 24 00 00 00 00 	movl   $0x0,(%esp)
    19b2:	e8 cb 24 00 00       	call   3e82 <exit>
  }

  fd = open("lf2", 0);
  if (fd < 0)
  {
    printf(1, "open lf2 failed\n");
    19b7:	53                   	push   %ebx
    19b8:	53                   	push   %ebx
    19b9:	68 f0 48 00 00       	push   $0x48f0
    19be:	6a 01                	push   $0x1
    19c0:	e8 1b 26 00 00       	call   3fe0 <printf>
    exit(FAIL_STATUS);
    19c5:	c7 04 24 00 00 00 00 	movl   $0x0,(%esp)
    19cc:	e8 b1 24 00 00       	call   3e82 <exit>
  }
  unlink("lf1");

  if (open("lf1", 0) >= 0)
  {
    printf(1, "unlinked lf1 but it is still there!\n");
    19d1:	50                   	push   %eax
    19d2:	50                   	push   %eax
    19d3:	68 bc 54 00 00       	push   $0x54bc
    19d8:	6a 01                	push   $0x1
    19da:	e8 01 26 00 00       	call   3fe0 <printf>
    exit(FAIL_STATUS);
    19df:	c7 04 24 00 00 00 00 	movl   $0x0,(%esp)
    19e6:	e8 97 24 00 00       	call   3e82 <exit>
  }
  close(fd);

  if (link("lf1", "lf2") < 0)
  {
    printf(1, "link lf1 lf2 failed\n");
    19eb:	51                   	push   %ecx
    19ec:	51                   	push   %ecx
    19ed:	68 db 48 00 00       	push   $0x48db
    19f2:	6a 01                	push   $0x1
    19f4:	e8 e7 25 00 00       	call   3fe0 <printf>
    exit(FAIL_STATUS);
    19f9:	c7 04 24 00 00 00 00 	movl   $0x0,(%esp)
    1a00:	e8 7d 24 00 00       	call   3e82 <exit>
    printf(1, "create lf1 failed\n");
    exit(FAIL_STATUS);
  }
  if (write(fd, "hello", 5) != 5)
  {
    printf(1, "write lf1 failed\n");
    1a05:	50                   	push   %eax
    1a06:	50                   	push   %eax
    1a07:	68 c9 48 00 00       	push   $0x48c9
    1a0c:	6a 01                	push   $0x1
    1a0e:	e8 cd 25 00 00       	call   3fe0 <printf>
    exit(FAIL_STATUS);
    1a13:	c7 04 24 00 00 00 00 	movl   $0x0,(%esp)
    1a1a:	e8 63 24 00 00       	call   3e82 <exit>
    1a1f:	90                   	nop

00001a20 <concreate>:
  printf(1, "linktest ok\n");
}

// test concurrent create/link/unlink of the same file
void concreate(void)
{
    1a20:	55                   	push   %ebp
    1a21:	89 e5                	mov    %esp,%ebp
    1a23:	57                   	push   %edi
    1a24:	56                   	push   %esi
    1a25:	53                   	push   %ebx
  int status;

  printf(1, "concreate test\n");
  file[0] = 'C';
  file[2] = '\0';
  for (i = 0; i < 40; i++)
    1a26:	31 ff                	xor    %edi,%edi
    1a28:	8d 5d a9             	lea    -0x57(%ebp),%ebx
  {
    file[1] = '0' + i;
    unlink(file);
    pid = fork();
    if (pid && (i % 3) == 1)
    1a2b:	be 56 55 55 55       	mov    $0x55555556,%esi
  printf(1, "linktest ok\n");
}

// test concurrent create/link/unlink of the same file
void concreate(void)
{
    1a30:	83 ec 64             	sub    $0x64,%esp
    ushort inum;
    char name[14];
  } de;
  int status;

  printf(1, "concreate test\n");
    1a33:	68 59 49 00 00       	push   $0x4959
    1a38:	6a 01                	push   $0x1
    1a3a:	e8 a1 25 00 00       	call   3fe0 <printf>
  file[0] = 'C';
    1a3f:	c6 45 a9 43          	movb   $0x43,-0x57(%ebp)
  file[2] = '\0';
    1a43:	c6 45 ab 00          	movb   $0x0,-0x55(%ebp)
    1a47:	83 c4 10             	add    $0x10,%esp
    1a4a:	eb 5b                	jmp    1aa7 <concreate+0x87>
    1a4c:	8d 74 26 00          	lea    0x0(%esi,%eiz,1),%esi
  for (i = 0; i < 40; i++)
  {
    file[1] = '0' + i;
    unlink(file);
    pid = fork();
    if (pid && (i % 3) == 1)
    1a50:	89 f8                	mov    %edi,%eax
    1a52:	89 f9                	mov    %edi,%ecx
    1a54:	f7 ee                	imul   %esi
    1a56:	89 f8                	mov    %edi,%eax
    1a58:	c1 f8 1f             	sar    $0x1f,%eax
    1a5b:	29 c2                	sub    %eax,%edx
    1a5d:	8d 04 52             	lea    (%edx,%edx,2),%eax
    1a60:	29 c1                	sub    %eax,%ecx
    1a62:	83 f9 01             	cmp    $0x1,%ecx
    1a65:	0f 84 cd 00 00 00    	je     1b38 <concreate+0x118>
    {
      link("C0", file);
    }
    else
    {
      fd = open(file, O_CREATE | O_RDWR);
    1a6b:	83 ec 08             	sub    $0x8,%esp
    1a6e:	68 02 02 00 00       	push   $0x202
    1a73:	53                   	push   %ebx
    1a74:	e8 49 24 00 00       	call   3ec2 <open>
      if (fd < 0)
    1a79:	83 c4 10             	add    $0x10,%esp
    1a7c:	85 c0                	test   %eax,%eax
    1a7e:	78 77                	js     1af7 <concreate+0xd7>
      {
        printf(1, "concreate create %s failed\n", file);
        exit(FAIL_STATUS);
      }
      close(fd);
    1a80:	83 ec 0c             	sub    $0xc,%esp
    1a83:	50                   	push   %eax
    1a84:	e8 21 24 00 00       	call   3eaa <close>
    1a89:	83 c4 10             	add    $0x10,%esp
    }
    if (pid == 0)
      exit(FAIL_STATUS);
    else
      wait(&status);
    1a8c:	8d 45 ac             	lea    -0x54(%ebp),%eax
    1a8f:	83 ec 0c             	sub    $0xc,%esp
  int status;

  printf(1, "concreate test\n");
  file[0] = 'C';
  file[2] = '\0';
  for (i = 0; i < 40; i++)
    1a92:	83 c7 01             	add    $0x1,%edi
      close(fd);
    }
    if (pid == 0)
      exit(FAIL_STATUS);
    else
      wait(&status);
    1a95:	50                   	push   %eax
    1a96:	e8 ef 23 00 00       	call   3e8a <wait>
  int status;

  printf(1, "concreate test\n");
  file[0] = 'C';
  file[2] = '\0';
  for (i = 0; i < 40; i++)
    1a9b:	83 c4 10             	add    $0x10,%esp
    1a9e:	83 ff 28             	cmp    $0x28,%edi
    1aa1:	0f 84 a9 00 00 00    	je     1b50 <concreate+0x130>
  {
    file[1] = '0' + i;
    unlink(file);
    1aa7:	83 ec 0c             	sub    $0xc,%esp
  printf(1, "concreate test\n");
  file[0] = 'C';
  file[2] = '\0';
  for (i = 0; i < 40; i++)
  {
    file[1] = '0' + i;
    1aaa:	8d 47 30             	lea    0x30(%edi),%eax
    unlink(file);
    1aad:	53                   	push   %ebx
  printf(1, "concreate test\n");
  file[0] = 'C';
  file[2] = '\0';
  for (i = 0; i < 40; i++)
  {
    file[1] = '0' + i;
    1aae:	88 45 aa             	mov    %al,-0x56(%ebp)
    unlink(file);
    1ab1:	e8 1c 24 00 00       	call   3ed2 <unlink>
    pid = fork();
    1ab6:	e8 bf 23 00 00       	call   3e7a <fork>
    if (pid && (i % 3) == 1)
    1abb:	83 c4 10             	add    $0x10,%esp
    1abe:	85 c0                	test   %eax,%eax
    1ac0:	75 8e                	jne    1a50 <concreate+0x30>
    {
      link("C0", file);
    }
    else if (pid == 0 && (i % 5) == 1)
    1ac2:	89 f8                	mov    %edi,%eax
    1ac4:	ba 67 66 66 66       	mov    $0x66666667,%edx
    1ac9:	f7 ea                	imul   %edx
    1acb:	89 f8                	mov    %edi,%eax
    1acd:	c1 f8 1f             	sar    $0x1f,%eax
    1ad0:	d1 fa                	sar    %edx
    1ad2:	29 c2                	sub    %eax,%edx
    1ad4:	8d 04 92             	lea    (%edx,%edx,4),%eax
    1ad7:	29 c7                	sub    %eax,%edi
    1ad9:	83 ff 01             	cmp    $0x1,%edi
    1adc:	74 3a                	je     1b18 <concreate+0xf8>
    {
      link("C0", file);
    }
    else
    {
      fd = open(file, O_CREATE | O_RDWR);
    1ade:	83 ec 08             	sub    $0x8,%esp
    1ae1:	68 02 02 00 00       	push   $0x202
    1ae6:	53                   	push   %ebx
    1ae7:	e8 d6 23 00 00       	call   3ec2 <open>
      if (fd < 0)
    1aec:	83 c4 10             	add    $0x10,%esp
    1aef:	85 c0                	test   %eax,%eax
    1af1:	0f 89 5c 02 00 00    	jns    1d53 <concreate+0x333>
      {
        printf(1, "concreate create %s failed\n", file);
    1af7:	83 ec 04             	sub    $0x4,%esp
    1afa:	53                   	push   %ebx
    1afb:	68 6c 49 00 00       	push   $0x496c
    1b00:	6a 01                	push   $0x1
    1b02:	e8 d9 24 00 00       	call   3fe0 <printf>
        exit(FAIL_STATUS);
    1b07:	c7 04 24 00 00 00 00 	movl   $0x0,(%esp)
    1b0e:	e8 6f 23 00 00       	call   3e82 <exit>
    1b13:	90                   	nop
    1b14:	8d 74 26 00          	lea    0x0(%esi,%eiz,1),%esi
    {
      link("C0", file);
    }
    else if (pid == 0 && (i % 5) == 1)
    {
      link("C0", file);
    1b18:	83 ec 08             	sub    $0x8,%esp
    1b1b:	53                   	push   %ebx
    1b1c:	68 69 49 00 00       	push   $0x4969
    1b21:	e8 bc 23 00 00       	call   3ee2 <link>
    1b26:	83 c4 10             	add    $0x10,%esp
        exit(FAIL_STATUS);
      }
      close(fd);
    }
    if (pid == 0)
      exit(FAIL_STATUS);
    1b29:	83 ec 0c             	sub    $0xc,%esp
    1b2c:	6a 00                	push   $0x0
    1b2e:	e8 4f 23 00 00       	call   3e82 <exit>
    1b33:	90                   	nop
    1b34:	8d 74 26 00          	lea    0x0(%esi,%eiz,1),%esi
    file[1] = '0' + i;
    unlink(file);
    pid = fork();
    if (pid && (i % 3) == 1)
    {
      link("C0", file);
    1b38:	83 ec 08             	sub    $0x8,%esp
    1b3b:	53                   	push   %ebx
    1b3c:	68 69 49 00 00       	push   $0x4969
    1b41:	e8 9c 23 00 00       	call   3ee2 <link>
    1b46:	83 c4 10             	add    $0x10,%esp
    1b49:	e9 3e ff ff ff       	jmp    1a8c <concreate+0x6c>
    1b4e:	66 90                	xchg   %ax,%ax
      exit(FAIL_STATUS);
    else
      wait(&status);
  }

  memset(fa, 0, sizeof(fa));
    1b50:	8d 45 c0             	lea    -0x40(%ebp),%eax
    1b53:	83 ec 04             	sub    $0x4,%esp
    1b56:	8d 7d b0             	lea    -0x50(%ebp),%edi
    1b59:	6a 28                	push   $0x28
    1b5b:	6a 00                	push   $0x0
    1b5d:	50                   	push   %eax
    1b5e:	e8 8d 21 00 00       	call   3cf0 <memset>
  fd = open(".", 0);
    1b63:	59                   	pop    %ecx
    1b64:	5e                   	pop    %esi
    1b65:	6a 00                	push   $0x0
    1b67:	68 76 4b 00 00       	push   $0x4b76
    1b6c:	e8 51 23 00 00       	call   3ec2 <open>
  n = 0;
  while (read(fd, &de, sizeof(de)) > 0)
    1b71:	83 c4 10             	add    $0x10,%esp
    else
      wait(&status);
  }

  memset(fa, 0, sizeof(fa));
  fd = open(".", 0);
    1b74:	89 c6                	mov    %eax,%esi
  n = 0;
    1b76:	c7 45 a4 00 00 00 00 	movl   $0x0,-0x5c(%ebp)
    1b7d:	8d 76 00             	lea    0x0(%esi),%esi
  while (read(fd, &de, sizeof(de)) > 0)
    1b80:	83 ec 04             	sub    $0x4,%esp
    1b83:	6a 10                	push   $0x10
    1b85:	57                   	push   %edi
    1b86:	56                   	push   %esi
    1b87:	e8 0e 23 00 00       	call   3e9a <read>
    1b8c:	83 c4 10             	add    $0x10,%esp
    1b8f:	85 c0                	test   %eax,%eax
    1b91:	7e 3d                	jle    1bd0 <concreate+0x1b0>
  {
    if (de.inum == 0)
    1b93:	66 83 7d b0 00       	cmpw   $0x0,-0x50(%ebp)
    1b98:	74 e6                	je     1b80 <concreate+0x160>
      continue;
    if (de.name[0] == 'C' && de.name[2] == '\0')
    1b9a:	80 7d b2 43          	cmpb   $0x43,-0x4e(%ebp)
    1b9e:	75 e0                	jne    1b80 <concreate+0x160>
    1ba0:	80 7d b4 00          	cmpb   $0x0,-0x4c(%ebp)
    1ba4:	75 da                	jne    1b80 <concreate+0x160>
    {
      i = de.name[1] - '0';
    1ba6:	0f be 45 b3          	movsbl -0x4d(%ebp),%eax
    1baa:	83 e8 30             	sub    $0x30,%eax
      if (i < 0 || i >= sizeof(fa))
    1bad:	83 f8 27             	cmp    $0x27,%eax
    1bb0:	0f 87 7e 01 00 00    	ja     1d34 <concreate+0x314>
      {
        printf(1, "concreate weird file %s\n", de.name);
        exit(FAIL_STATUS);
      }
      if (fa[i])
    1bb6:	80 7c 05 c0 00       	cmpb   $0x0,-0x40(%ebp,%eax,1)
    1bbb:	0f 85 54 01 00 00    	jne    1d15 <concreate+0x2f5>
      {
        printf(1, "concreate duplicate file %s\n", de.name);
        exit(FAIL_STATUS);
      }
      fa[i] = 1;
    1bc1:	c6 44 05 c0 01       	movb   $0x1,-0x40(%ebp,%eax,1)
      n++;
    1bc6:	83 45 a4 01          	addl   $0x1,-0x5c(%ebp)
    1bca:	eb b4                	jmp    1b80 <concreate+0x160>
    1bcc:	8d 74 26 00          	lea    0x0(%esi,%eiz,1),%esi
    }
  }
  close(fd);
    1bd0:	83 ec 0c             	sub    $0xc,%esp
    1bd3:	56                   	push   %esi
    1bd4:	e8 d1 22 00 00       	call   3eaa <close>

  if (n != 40)
    1bd9:	83 c4 10             	add    $0x10,%esp
    1bdc:	83 7d a4 28          	cmpl   $0x28,-0x5c(%ebp)
    1be0:	0f 85 14 01 00 00    	jne    1cfa <concreate+0x2da>
    1be6:	31 f6                	xor    %esi,%esi
    1be8:	eb 7a                	jmp    1c64 <concreate+0x244>
    1bea:	8d b6 00 00 00 00    	lea    0x0(%esi),%esi
    {
      printf(1, "fork failed\n");
      exit(FAIL_STATUS);
    }
    if (((i % 3) == 0 && pid == 0) ||
        ((i % 3) == 1 && pid != 0))
    1bf0:	83 fa 01             	cmp    $0x1,%edx
    1bf3:	0f 85 a3 00 00 00    	jne    1c9c <concreate+0x27c>
    {
      close(open(file, 0));
    1bf9:	83 ec 08             	sub    $0x8,%esp
    1bfc:	6a 00                	push   $0x0
    1bfe:	53                   	push   %ebx
    1bff:	e8 be 22 00 00       	call   3ec2 <open>
    1c04:	89 04 24             	mov    %eax,(%esp)
    1c07:	e8 9e 22 00 00       	call   3eaa <close>
      close(open(file, 0));
    1c0c:	58                   	pop    %eax
    1c0d:	5a                   	pop    %edx
    1c0e:	6a 00                	push   $0x0
    1c10:	53                   	push   %ebx
    1c11:	e8 ac 22 00 00       	call   3ec2 <open>
    1c16:	89 04 24             	mov    %eax,(%esp)
    1c19:	e8 8c 22 00 00       	call   3eaa <close>
      close(open(file, 0));
    1c1e:	59                   	pop    %ecx
    1c1f:	58                   	pop    %eax
    1c20:	6a 00                	push   $0x0
    1c22:	53                   	push   %ebx
    1c23:	e8 9a 22 00 00       	call   3ec2 <open>
    1c28:	89 04 24             	mov    %eax,(%esp)
    1c2b:	e8 7a 22 00 00       	call   3eaa <close>
      close(open(file, 0));
    1c30:	58                   	pop    %eax
    1c31:	5a                   	pop    %edx
    1c32:	6a 00                	push   $0x0
    1c34:	53                   	push   %ebx
    1c35:	e8 88 22 00 00       	call   3ec2 <open>
    1c3a:	89 04 24             	mov    %eax,(%esp)
    1c3d:	e8 68 22 00 00       	call   3eaa <close>
    1c42:	83 c4 10             	add    $0x10,%esp
      unlink(file);
      unlink(file);
      unlink(file);
      unlink(file);
    }
    if (pid == 0)
    1c45:	85 ff                	test   %edi,%edi
    1c47:	0f 84 dc fe ff ff    	je     1b29 <concreate+0x109>
      exit(FAIL_STATUS);
    else
      wait(&status);
    1c4d:	8d 45 ac             	lea    -0x54(%ebp),%eax
    1c50:	83 ec 0c             	sub    $0xc,%esp
  {
    printf(1, "concreate not enough files in directory listing\n");
    exit(FAIL_STATUS);
  }

  for (i = 0; i < 40; i++)
    1c53:	83 c6 01             	add    $0x1,%esi
      unlink(file);
    }
    if (pid == 0)
      exit(FAIL_STATUS);
    else
      wait(&status);
    1c56:	50                   	push   %eax
    1c57:	e8 2e 22 00 00       	call   3e8a <wait>
  {
    printf(1, "concreate not enough files in directory listing\n");
    exit(FAIL_STATUS);
  }

  for (i = 0; i < 40; i++)
    1c5c:	83 c4 10             	add    $0x10,%esp
    1c5f:	83 fe 28             	cmp    $0x28,%esi
    1c62:	74 64                	je     1cc8 <concreate+0x2a8>
  {
    file[1] = '0' + i;
    1c64:	8d 46 30             	lea    0x30(%esi),%eax
    1c67:	88 45 aa             	mov    %al,-0x56(%ebp)
    pid = fork();
    1c6a:	e8 0b 22 00 00       	call   3e7a <fork>
    if (pid < 0)
    1c6f:	85 c0                	test   %eax,%eax
  }

  for (i = 0; i < 40; i++)
  {
    file[1] = '0' + i;
    pid = fork();
    1c71:	89 c7                	mov    %eax,%edi
    if (pid < 0)
    1c73:	78 6a                	js     1cdf <concreate+0x2bf>
    {
      printf(1, "fork failed\n");
      exit(FAIL_STATUS);
    }
    if (((i % 3) == 0 && pid == 0) ||
    1c75:	b8 56 55 55 55       	mov    $0x55555556,%eax
    1c7a:	f7 ee                	imul   %esi
    1c7c:	89 f0                	mov    %esi,%eax
    1c7e:	c1 f8 1f             	sar    $0x1f,%eax
    1c81:	29 c2                	sub    %eax,%edx
    1c83:	8d 04 52             	lea    (%edx,%edx,2),%eax
    1c86:	89 f2                	mov    %esi,%edx
    1c88:	29 c2                	sub    %eax,%edx
    1c8a:	89 f8                	mov    %edi,%eax
    1c8c:	09 d0                	or     %edx,%eax
    1c8e:	0f 84 65 ff ff ff    	je     1bf9 <concreate+0x1d9>
        ((i % 3) == 1 && pid != 0))
    1c94:	85 ff                	test   %edi,%edi
    1c96:	0f 85 54 ff ff ff    	jne    1bf0 <concreate+0x1d0>
      close(open(file, 0));
      close(open(file, 0));
    }
    else
    {
      unlink(file);
    1c9c:	83 ec 0c             	sub    $0xc,%esp
    1c9f:	53                   	push   %ebx
    1ca0:	e8 2d 22 00 00       	call   3ed2 <unlink>
      unlink(file);
    1ca5:	89 1c 24             	mov    %ebx,(%esp)
    1ca8:	e8 25 22 00 00       	call   3ed2 <unlink>
      unlink(file);
    1cad:	89 1c 24             	mov    %ebx,(%esp)
    1cb0:	e8 1d 22 00 00       	call   3ed2 <unlink>
      unlink(file);
    1cb5:	89 1c 24             	mov    %ebx,(%esp)
    1cb8:	e8 15 22 00 00       	call   3ed2 <unlink>
    1cbd:	83 c4 10             	add    $0x10,%esp
    1cc0:	eb 83                	jmp    1c45 <concreate+0x225>
    1cc2:	8d b6 00 00 00 00    	lea    0x0(%esi),%esi
      exit(FAIL_STATUS);
    else
      wait(&status);
  }

  printf(1, "concreate ok\n");
    1cc8:	83 ec 08             	sub    $0x8,%esp
    1ccb:	68 be 49 00 00       	push   $0x49be
    1cd0:	6a 01                	push   $0x1
    1cd2:	e8 09 23 00 00       	call   3fe0 <printf>
}
    1cd7:	8d 65 f4             	lea    -0xc(%ebp),%esp
    1cda:	5b                   	pop    %ebx
    1cdb:	5e                   	pop    %esi
    1cdc:	5f                   	pop    %edi
    1cdd:	5d                   	pop    %ebp
    1cde:	c3                   	ret    
  {
    file[1] = '0' + i;
    pid = fork();
    if (pid < 0)
    {
      printf(1, "fork failed\n");
    1cdf:	83 ec 08             	sub    $0x8,%esp
    1ce2:	68 41 52 00 00       	push   $0x5241
    1ce7:	6a 01                	push   $0x1
    1ce9:	e8 f2 22 00 00       	call   3fe0 <printf>
      exit(FAIL_STATUS);
    1cee:	c7 04 24 00 00 00 00 	movl   $0x0,(%esp)
    1cf5:	e8 88 21 00 00       	call   3e82 <exit>
  }
  close(fd);

  if (n != 40)
  {
    printf(1, "concreate not enough files in directory listing\n");
    1cfa:	83 ec 08             	sub    $0x8,%esp
    1cfd:	68 08 55 00 00       	push   $0x5508
    1d02:	6a 01                	push   $0x1
    1d04:	e8 d7 22 00 00       	call   3fe0 <printf>
    exit(FAIL_STATUS);
    1d09:	c7 04 24 00 00 00 00 	movl   $0x0,(%esp)
    1d10:	e8 6d 21 00 00       	call   3e82 <exit>
        printf(1, "concreate weird file %s\n", de.name);
        exit(FAIL_STATUS);
      }
      if (fa[i])
      {
        printf(1, "concreate duplicate file %s\n", de.name);
    1d15:	8d 45 b2             	lea    -0x4e(%ebp),%eax
    1d18:	83 ec 04             	sub    $0x4,%esp
    1d1b:	50                   	push   %eax
    1d1c:	68 a1 49 00 00       	push   $0x49a1
    1d21:	6a 01                	push   $0x1
    1d23:	e8 b8 22 00 00       	call   3fe0 <printf>
        exit(FAIL_STATUS);
    1d28:	c7 04 24 00 00 00 00 	movl   $0x0,(%esp)
    1d2f:	e8 4e 21 00 00       	call   3e82 <exit>
    if (de.name[0] == 'C' && de.name[2] == '\0')
    {
      i = de.name[1] - '0';
      if (i < 0 || i >= sizeof(fa))
      {
        printf(1, "concreate weird file %s\n", de.name);
    1d34:	8d 45 b2             	lea    -0x4e(%ebp),%eax
    1d37:	83 ec 04             	sub    $0x4,%esp
    1d3a:	50                   	push   %eax
    1d3b:	68 88 49 00 00       	push   $0x4988
    1d40:	6a 01                	push   $0x1
    1d42:	e8 99 22 00 00       	call   3fe0 <printf>
        exit(FAIL_STATUS);
    1d47:	c7 04 24 00 00 00 00 	movl   $0x0,(%esp)
    1d4e:	e8 2f 21 00 00       	call   3e82 <exit>
      if (fd < 0)
      {
        printf(1, "concreate create %s failed\n", file);
        exit(FAIL_STATUS);
      }
      close(fd);
    1d53:	83 ec 0c             	sub    $0xc,%esp
    1d56:	50                   	push   %eax
    1d57:	e8 4e 21 00 00       	call   3eaa <close>
    1d5c:	83 c4 10             	add    $0x10,%esp
    1d5f:	e9 c5 fd ff ff       	jmp    1b29 <concreate+0x109>
    1d64:	8d b6 00 00 00 00    	lea    0x0(%esi),%esi
    1d6a:	8d bf 00 00 00 00    	lea    0x0(%edi),%edi

00001d70 <linkunlink>:
}

// another concurrent link/unlink/create test,
// to look for deadlocks.
void linkunlink()
{
    1d70:	55                   	push   %ebp
    1d71:	89 e5                	mov    %esp,%ebp
    1d73:	57                   	push   %edi
    1d74:	56                   	push   %esi
    1d75:	53                   	push   %ebx
    1d76:	83 ec 34             	sub    $0x34,%esp
  int pid, i;
  int status;

  printf(1, "linkunlink test\n");
    1d79:	68 cc 49 00 00       	push   $0x49cc
    1d7e:	6a 01                	push   $0x1
    1d80:	e8 5b 22 00 00       	call   3fe0 <printf>

  unlink("x");
    1d85:	c7 04 24 59 4c 00 00 	movl   $0x4c59,(%esp)
    1d8c:	e8 41 21 00 00       	call   3ed2 <unlink>
  pid = fork();
    1d91:	e8 e4 20 00 00       	call   3e7a <fork>
  if (pid < 0)
    1d96:	83 c4 10             	add    $0x10,%esp
    1d99:	85 c0                	test   %eax,%eax
  int status;

  printf(1, "linkunlink test\n");

  unlink("x");
  pid = fork();
    1d9b:	89 45 d4             	mov    %eax,-0x2c(%ebp)
  if (pid < 0)
    1d9e:	0f 88 b6 00 00 00    	js     1e5a <linkunlink+0xea>
  {
    printf(1, "fork failed\n");
    exit(FAIL_STATUS);
  }

  unsigned int x = (pid ? 1 : 97);
    1da4:	83 7d d4 01          	cmpl   $0x1,-0x2c(%ebp)
    1da8:	bb 64 00 00 00       	mov    $0x64,%ebx
  for (i = 0; i < 100; i++)
  {
    x = x * 1103515245 + 12345;
    if ((x % 3) == 0)
    1dad:	be ab aa aa aa       	mov    $0xaaaaaaab,%esi
  {
    printf(1, "fork failed\n");
    exit(FAIL_STATUS);
  }

  unsigned int x = (pid ? 1 : 97);
    1db2:	19 ff                	sbb    %edi,%edi
    1db4:	83 e7 60             	and    $0x60,%edi
    1db7:	83 c7 01             	add    $0x1,%edi
    1dba:	eb 1e                	jmp    1dda <linkunlink+0x6a>
    1dbc:	8d 74 26 00          	lea    0x0(%esi,%eiz,1),%esi
    x = x * 1103515245 + 12345;
    if ((x % 3) == 0)
    {
      close(open("x", O_RDWR | O_CREATE));
    }
    else if ((x % 3) == 1)
    1dc0:	83 fa 01             	cmp    $0x1,%edx
    1dc3:	74 7b                	je     1e40 <linkunlink+0xd0>
    {
      link("cat", "x");
    }
    else
    {
      unlink("x");
    1dc5:	83 ec 0c             	sub    $0xc,%esp
    1dc8:	68 59 4c 00 00       	push   $0x4c59
    1dcd:	e8 00 21 00 00       	call   3ed2 <unlink>
    1dd2:	83 c4 10             	add    $0x10,%esp
    printf(1, "fork failed\n");
    exit(FAIL_STATUS);
  }

  unsigned int x = (pid ? 1 : 97);
  for (i = 0; i < 100; i++)
    1dd5:	83 eb 01             	sub    $0x1,%ebx
    1dd8:	74 3d                	je     1e17 <linkunlink+0xa7>
  {
    x = x * 1103515245 + 12345;
    1dda:	69 cf 6d 4e c6 41    	imul   $0x41c64e6d,%edi,%ecx
    1de0:	8d b9 39 30 00 00    	lea    0x3039(%ecx),%edi
    if ((x % 3) == 0)
    1de6:	89 f8                	mov    %edi,%eax
    1de8:	f7 e6                	mul    %esi
    1dea:	d1 ea                	shr    %edx
    1dec:	8d 04 52             	lea    (%edx,%edx,2),%eax
    1def:	89 fa                	mov    %edi,%edx
    1df1:	29 c2                	sub    %eax,%edx
    1df3:	75 cb                	jne    1dc0 <linkunlink+0x50>
    {
      close(open("x", O_RDWR | O_CREATE));
    1df5:	83 ec 08             	sub    $0x8,%esp
    1df8:	68 02 02 00 00       	push   $0x202
    1dfd:	68 59 4c 00 00       	push   $0x4c59
    1e02:	e8 bb 20 00 00       	call   3ec2 <open>
    1e07:	89 04 24             	mov    %eax,(%esp)
    1e0a:	e8 9b 20 00 00       	call   3eaa <close>
    1e0f:	83 c4 10             	add    $0x10,%esp
    printf(1, "fork failed\n");
    exit(FAIL_STATUS);
  }

  unsigned int x = (pid ? 1 : 97);
  for (i = 0; i < 100; i++)
    1e12:	83 eb 01             	sub    $0x1,%ebx
    1e15:	75 c3                	jne    1dda <linkunlink+0x6a>
    {
      unlink("x");
    }
  }

  if (pid)
    1e17:	8b 4d d4             	mov    -0x2c(%ebp),%ecx
    1e1a:	85 c9                	test   %ecx,%ecx
    1e1c:	74 57                	je     1e75 <linkunlink+0x105>
    wait(&status);
    1e1e:	8d 45 e4             	lea    -0x1c(%ebp),%eax
    1e21:	83 ec 0c             	sub    $0xc,%esp
    1e24:	50                   	push   %eax
    1e25:	e8 60 20 00 00       	call   3e8a <wait>
  else
    exit(FAIL_STATUS);

  printf(1, "linkunlink ok\n");
    1e2a:	58                   	pop    %eax
    1e2b:	5a                   	pop    %edx
    1e2c:	68 e1 49 00 00       	push   $0x49e1
    1e31:	6a 01                	push   $0x1
    1e33:	e8 a8 21 00 00       	call   3fe0 <printf>
}
    1e38:	8d 65 f4             	lea    -0xc(%ebp),%esp
    1e3b:	5b                   	pop    %ebx
    1e3c:	5e                   	pop    %esi
    1e3d:	5f                   	pop    %edi
    1e3e:	5d                   	pop    %ebp
    1e3f:	c3                   	ret    
    {
      close(open("x", O_RDWR | O_CREATE));
    }
    else if ((x % 3) == 1)
    {
      link("cat", "x");
    1e40:	83 ec 08             	sub    $0x8,%esp
    1e43:	68 59 4c 00 00       	push   $0x4c59
    1e48:	68 dd 49 00 00       	push   $0x49dd
    1e4d:	e8 90 20 00 00       	call   3ee2 <link>
    1e52:	83 c4 10             	add    $0x10,%esp
    1e55:	e9 7b ff ff ff       	jmp    1dd5 <linkunlink+0x65>

  unlink("x");
  pid = fork();
  if (pid < 0)
  {
    printf(1, "fork failed\n");
    1e5a:	83 ec 08             	sub    $0x8,%esp
    1e5d:	68 41 52 00 00       	push   $0x5241
    1e62:	6a 01                	push   $0x1
    1e64:	e8 77 21 00 00       	call   3fe0 <printf>
    exit(FAIL_STATUS);
    1e69:	c7 04 24 00 00 00 00 	movl   $0x0,(%esp)
    1e70:	e8 0d 20 00 00       	call   3e82 <exit>
  }

  if (pid)
    wait(&status);
  else
    exit(FAIL_STATUS);
    1e75:	83 ec 0c             	sub    $0xc,%esp
    1e78:	6a 00                	push   $0x0
    1e7a:	e8 03 20 00 00       	call   3e82 <exit>
    1e7f:	90                   	nop

00001e80 <bigdir>:
  printf(1, "linkunlink ok\n");
}

// directory that uses indirect blocks
void bigdir(void)
{
    1e80:	55                   	push   %ebp
    1e81:	89 e5                	mov    %esp,%ebp
    1e83:	56                   	push   %esi
    1e84:	53                   	push   %ebx
    1e85:	83 ec 18             	sub    $0x18,%esp
  int i, fd;
  char name[10];

  printf(1, "bigdir test\n");
    1e88:	68 f0 49 00 00       	push   $0x49f0
    1e8d:	6a 01                	push   $0x1
    1e8f:	e8 4c 21 00 00       	call   3fe0 <printf>
  unlink("bd");
    1e94:	c7 04 24 fd 49 00 00 	movl   $0x49fd,(%esp)
    1e9b:	e8 32 20 00 00       	call   3ed2 <unlink>

  fd = open("bd", O_CREATE);
    1ea0:	58                   	pop    %eax
    1ea1:	5a                   	pop    %edx
    1ea2:	68 00 02 00 00       	push   $0x200
    1ea7:	68 fd 49 00 00       	push   $0x49fd
    1eac:	e8 11 20 00 00       	call   3ec2 <open>
  if (fd < 0)
    1eb1:	83 c4 10             	add    $0x10,%esp
    1eb4:	85 c0                	test   %eax,%eax
    1eb6:	0f 88 ec 00 00 00    	js     1fa8 <bigdir+0x128>
  {
    printf(1, "bigdir create failed\n");
    exit(FAIL_STATUS);
  }
  close(fd);
    1ebc:	83 ec 0c             	sub    $0xc,%esp
    1ebf:	8d 75 ee             	lea    -0x12(%ebp),%esi

  for (i = 0; i < 500; i++)
    1ec2:	31 db                	xor    %ebx,%ebx
  if (fd < 0)
  {
    printf(1, "bigdir create failed\n");
    exit(FAIL_STATUS);
  }
  close(fd);
    1ec4:	50                   	push   %eax
    1ec5:	e8 e0 1f 00 00       	call   3eaa <close>
    1eca:	83 c4 10             	add    $0x10,%esp
    1ecd:	8d 76 00             	lea    0x0(%esi),%esi

  for (i = 0; i < 500; i++)
  {
    name[0] = 'x';
    name[1] = '0' + (i / 64);
    1ed0:	89 d8                	mov    %ebx,%eax
    name[2] = '0' + (i % 64);
    name[3] = '\0';
    if (link("bd", name) != 0)
    1ed2:	83 ec 08             	sub    $0x8,%esp
  }
  close(fd);

  for (i = 0; i < 500; i++)
  {
    name[0] = 'x';
    1ed5:	c6 45 ee 78          	movb   $0x78,-0x12(%ebp)
    name[1] = '0' + (i / 64);
    1ed9:	c1 f8 06             	sar    $0x6,%eax
    name[2] = '0' + (i % 64);
    name[3] = '\0';
    if (link("bd", name) != 0)
    1edc:	56                   	push   %esi
    1edd:	68 fd 49 00 00       	push   $0x49fd
  close(fd);

  for (i = 0; i < 500; i++)
  {
    name[0] = 'x';
    name[1] = '0' + (i / 64);
    1ee2:	83 c0 30             	add    $0x30,%eax
    name[2] = '0' + (i % 64);
    name[3] = '\0';
    1ee5:	c6 45 f1 00          	movb   $0x0,-0xf(%ebp)
  close(fd);

  for (i = 0; i < 500; i++)
  {
    name[0] = 'x';
    name[1] = '0' + (i / 64);
    1ee9:	88 45 ef             	mov    %al,-0x11(%ebp)
    name[2] = '0' + (i % 64);
    1eec:	89 d8                	mov    %ebx,%eax
    1eee:	83 e0 3f             	and    $0x3f,%eax
    1ef1:	83 c0 30             	add    $0x30,%eax
    1ef4:	88 45 f0             	mov    %al,-0x10(%ebp)
    name[3] = '\0';
    if (link("bd", name) != 0)
    1ef7:	e8 e6 1f 00 00       	call   3ee2 <link>
    1efc:	83 c4 10             	add    $0x10,%esp
    1eff:	85 c0                	test   %eax,%eax
    1f01:	75 6f                	jne    1f72 <bigdir+0xf2>
    printf(1, "bigdir create failed\n");
    exit(FAIL_STATUS);
  }
  close(fd);

  for (i = 0; i < 500; i++)
    1f03:	83 c3 01             	add    $0x1,%ebx
    1f06:	81 fb f4 01 00 00    	cmp    $0x1f4,%ebx
    1f0c:	75 c2                	jne    1ed0 <bigdir+0x50>
      printf(1, "bigdir link failed\n");
      exit(FAIL_STATUS);
    }
  }

  unlink("bd");
    1f0e:	83 ec 0c             	sub    $0xc,%esp
  for (i = 0; i < 500; i++)
    1f11:	31 db                	xor    %ebx,%ebx
      printf(1, "bigdir link failed\n");
      exit(FAIL_STATUS);
    }
  }

  unlink("bd");
    1f13:	68 fd 49 00 00       	push   $0x49fd
    1f18:	e8 b5 1f 00 00       	call   3ed2 <unlink>
    1f1d:	83 c4 10             	add    $0x10,%esp
  for (i = 0; i < 500; i++)
  {
    name[0] = 'x';
    name[1] = '0' + (i / 64);
    1f20:	89 d8                	mov    %ebx,%eax
    name[2] = '0' + (i % 64);
    name[3] = '\0';
    if (unlink(name) != 0)
    1f22:	83 ec 0c             	sub    $0xc,%esp
  }

  unlink("bd");
  for (i = 0; i < 500; i++)
  {
    name[0] = 'x';
    1f25:	c6 45 ee 78          	movb   $0x78,-0x12(%ebp)
    name[1] = '0' + (i / 64);
    1f29:	c1 f8 06             	sar    $0x6,%eax
    name[2] = '0' + (i % 64);
    name[3] = '\0';
    if (unlink(name) != 0)
    1f2c:	56                   	push   %esi
  for (i = 0; i < 500; i++)
  {
    name[0] = 'x';
    name[1] = '0' + (i / 64);
    name[2] = '0' + (i % 64);
    name[3] = '\0';
    1f2d:	c6 45 f1 00          	movb   $0x0,-0xf(%ebp)

  unlink("bd");
  for (i = 0; i < 500; i++)
  {
    name[0] = 'x';
    name[1] = '0' + (i / 64);
    1f31:	83 c0 30             	add    $0x30,%eax
    1f34:	88 45 ef             	mov    %al,-0x11(%ebp)
    name[2] = '0' + (i % 64);
    1f37:	89 d8                	mov    %ebx,%eax
    1f39:	83 e0 3f             	and    $0x3f,%eax
    1f3c:	83 c0 30             	add    $0x30,%eax
    1f3f:	88 45 f0             	mov    %al,-0x10(%ebp)
    name[3] = '\0';
    if (unlink(name) != 0)
    1f42:	e8 8b 1f 00 00       	call   3ed2 <unlink>
    1f47:	83 c4 10             	add    $0x10,%esp
    1f4a:	85 c0                	test   %eax,%eax
    1f4c:	75 3f                	jne    1f8d <bigdir+0x10d>
      exit(FAIL_STATUS);
    }
  }

  unlink("bd");
  for (i = 0; i < 500; i++)
    1f4e:	83 c3 01             	add    $0x1,%ebx
    1f51:	81 fb f4 01 00 00    	cmp    $0x1f4,%ebx
    1f57:	75 c7                	jne    1f20 <bigdir+0xa0>
      printf(1, "bigdir unlink failed");
      exit(FAIL_STATUS);
    }
  }

  printf(1, "bigdir ok\n");
    1f59:	83 ec 08             	sub    $0x8,%esp
    1f5c:	68 3f 4a 00 00       	push   $0x4a3f
    1f61:	6a 01                	push   $0x1
    1f63:	e8 78 20 00 00       	call   3fe0 <printf>
}
    1f68:	83 c4 10             	add    $0x10,%esp
    1f6b:	8d 65 f8             	lea    -0x8(%ebp),%esp
    1f6e:	5b                   	pop    %ebx
    1f6f:	5e                   	pop    %esi
    1f70:	5d                   	pop    %ebp
    1f71:	c3                   	ret    
    name[1] = '0' + (i / 64);
    name[2] = '0' + (i % 64);
    name[3] = '\0';
    if (link("bd", name) != 0)
    {
      printf(1, "bigdir link failed\n");
    1f72:	83 ec 08             	sub    $0x8,%esp
    1f75:	68 16 4a 00 00       	push   $0x4a16
    1f7a:	6a 01                	push   $0x1
    1f7c:	e8 5f 20 00 00       	call   3fe0 <printf>
      exit(FAIL_STATUS);
    1f81:	c7 04 24 00 00 00 00 	movl   $0x0,(%esp)
    1f88:	e8 f5 1e 00 00       	call   3e82 <exit>
    name[1] = '0' + (i / 64);
    name[2] = '0' + (i % 64);
    name[3] = '\0';
    if (unlink(name) != 0)
    {
      printf(1, "bigdir unlink failed");
    1f8d:	83 ec 08             	sub    $0x8,%esp
    1f90:	68 2a 4a 00 00       	push   $0x4a2a
    1f95:	6a 01                	push   $0x1
    1f97:	e8 44 20 00 00       	call   3fe0 <printf>
      exit(FAIL_STATUS);
    1f9c:	c7 04 24 00 00 00 00 	movl   $0x0,(%esp)
    1fa3:	e8 da 1e 00 00       	call   3e82 <exit>
  unlink("bd");

  fd = open("bd", O_CREATE);
  if (fd < 0)
  {
    printf(1, "bigdir create failed\n");
    1fa8:	83 ec 08             	sub    $0x8,%esp
    1fab:	68 00 4a 00 00       	push   $0x4a00
    1fb0:	6a 01                	push   $0x1
    1fb2:	e8 29 20 00 00       	call   3fe0 <printf>
    exit(FAIL_STATUS);
    1fb7:	c7 04 24 00 00 00 00 	movl   $0x0,(%esp)
    1fbe:	e8 bf 1e 00 00       	call   3e82 <exit>
    1fc3:	8d b6 00 00 00 00    	lea    0x0(%esi),%esi
    1fc9:	8d bc 27 00 00 00 00 	lea    0x0(%edi,%eiz,1),%edi

00001fd0 <subdir>:

  printf(1, "bigdir ok\n");
}

void subdir(void)
{
    1fd0:	55                   	push   %ebp
    1fd1:	89 e5                	mov    %esp,%ebp
    1fd3:	53                   	push   %ebx
    1fd4:	83 ec 0c             	sub    $0xc,%esp
  int fd, cc;

  printf(1, "subdir test\n");
    1fd7:	68 4a 4a 00 00       	push   $0x4a4a
    1fdc:	6a 01                	push   $0x1
    1fde:	e8 fd 1f 00 00       	call   3fe0 <printf>

  unlink("ff");
    1fe3:	c7 04 24 d3 4a 00 00 	movl   $0x4ad3,(%esp)
    1fea:	e8 e3 1e 00 00       	call   3ed2 <unlink>
  if (mkdir("dd") != 0)
    1fef:	c7 04 24 70 4b 00 00 	movl   $0x4b70,(%esp)
    1ff6:	e8 ef 1e 00 00       	call   3eea <mkdir>
    1ffb:	83 c4 10             	add    $0x10,%esp
    1ffe:	85 c0                	test   %eax,%eax
    2000:	0f 85 4d 06 00 00    	jne    2653 <subdir+0x683>
  {
    printf(1, "subdir mkdir dd failed\n");
    exit(FAIL_STATUS);
  }

  fd = open("dd/ff", O_CREATE | O_RDWR);
    2006:	83 ec 08             	sub    $0x8,%esp
    2009:	68 02 02 00 00       	push   $0x202
    200e:	68 a9 4a 00 00       	push   $0x4aa9
    2013:	e8 aa 1e 00 00       	call   3ec2 <open>
  if (fd < 0)
    2018:	83 c4 10             	add    $0x10,%esp
    201b:	85 c0                	test   %eax,%eax
  {
    printf(1, "subdir mkdir dd failed\n");
    exit(FAIL_STATUS);
  }

  fd = open("dd/ff", O_CREATE | O_RDWR);
    201d:	89 c3                	mov    %eax,%ebx
  if (fd < 0)
    201f:	0f 88 14 06 00 00    	js     2639 <subdir+0x669>
  {
    printf(1, "create dd/ff failed\n");
    exit(FAIL_STATUS);
  }
  write(fd, "ff", 2);
    2025:	83 ec 04             	sub    $0x4,%esp
    2028:	6a 02                	push   $0x2
    202a:	68 d3 4a 00 00       	push   $0x4ad3
    202f:	50                   	push   %eax
    2030:	e8 6d 1e 00 00       	call   3ea2 <write>
  close(fd);
    2035:	89 1c 24             	mov    %ebx,(%esp)
    2038:	e8 6d 1e 00 00       	call   3eaa <close>

  if (unlink("dd") >= 0)
    203d:	c7 04 24 70 4b 00 00 	movl   $0x4b70,(%esp)
    2044:	e8 89 1e 00 00       	call   3ed2 <unlink>
    2049:	83 c4 10             	add    $0x10,%esp
    204c:	85 c0                	test   %eax,%eax
    204e:	0f 89 cb 05 00 00    	jns    261f <subdir+0x64f>
  {
    printf(1, "unlink dd (non-empty dir) succeeded!\n");
    exit(PASS_STATUS);
  }

  if (mkdir("/dd/dd") != 0)
    2054:	83 ec 0c             	sub    $0xc,%esp
    2057:	68 84 4a 00 00       	push   $0x4a84
    205c:	e8 89 1e 00 00       	call   3eea <mkdir>
    2061:	83 c4 10             	add    $0x10,%esp
    2064:	85 c0                	test   %eax,%eax
    2066:	0f 85 95 04 00 00    	jne    2501 <subdir+0x531>
  {
    printf(1, "subdir mkdir dd/dd failed\n");
    exit(FAIL_STATUS);
  }

  fd = open("dd/dd/ff", O_CREATE | O_RDWR);
    206c:	83 ec 08             	sub    $0x8,%esp
    206f:	68 02 02 00 00       	push   $0x202
    2074:	68 a6 4a 00 00       	push   $0x4aa6
    2079:	e8 44 1e 00 00       	call   3ec2 <open>
  if (fd < 0)
    207e:	83 c4 10             	add    $0x10,%esp
    2081:	85 c0                	test   %eax,%eax
  {
    printf(1, "subdir mkdir dd/dd failed\n");
    exit(FAIL_STATUS);
  }

  fd = open("dd/dd/ff", O_CREATE | O_RDWR);
    2083:	89 c3                	mov    %eax,%ebx
  if (fd < 0)
    2085:	0f 88 aa 04 00 00    	js     2535 <subdir+0x565>
  {
    printf(1, "create dd/dd/ff failed\n");
    exit(FAIL_STATUS);
  }
  write(fd, "FF", 2);
    208b:	83 ec 04             	sub    $0x4,%esp
    208e:	6a 02                	push   $0x2
    2090:	68 c7 4a 00 00       	push   $0x4ac7
    2095:	50                   	push   %eax
    2096:	e8 07 1e 00 00       	call   3ea2 <write>
  close(fd);
    209b:	89 1c 24             	mov    %ebx,(%esp)
    209e:	e8 07 1e 00 00       	call   3eaa <close>

  fd = open("dd/dd/../ff", 0);
    20a3:	58                   	pop    %eax
    20a4:	5a                   	pop    %edx
    20a5:	6a 00                	push   $0x0
    20a7:	68 ca 4a 00 00       	push   $0x4aca
    20ac:	e8 11 1e 00 00       	call   3ec2 <open>
  if (fd < 0)
    20b1:	83 c4 10             	add    $0x10,%esp
    20b4:	85 c0                	test   %eax,%eax
    exit(FAIL_STATUS);
  }
  write(fd, "FF", 2);
  close(fd);

  fd = open("dd/dd/../ff", 0);
    20b6:	89 c3                	mov    %eax,%ebx
  if (fd < 0)
    20b8:	0f 88 5d 04 00 00    	js     251b <subdir+0x54b>
  {
    printf(1, "open dd/dd/../ff failed\n");
    exit(FAIL_STATUS);
  }
  cc = read(fd, buf, sizeof(buf));
    20be:	83 ec 04             	sub    $0x4,%esp
    20c1:	68 00 20 00 00       	push   $0x2000
    20c6:	68 80 8b 00 00       	push   $0x8b80
    20cb:	50                   	push   %eax
    20cc:	e8 c9 1d 00 00       	call   3e9a <read>
  if (cc != 2 || buf[0] != 'f')
    20d1:	83 c4 10             	add    $0x10,%esp
    20d4:	83 f8 02             	cmp    $0x2,%eax
    20d7:	0f 85 3a 03 00 00    	jne    2417 <subdir+0x447>
    20dd:	80 3d 80 8b 00 00 66 	cmpb   $0x66,0x8b80
    20e4:	0f 85 2d 03 00 00    	jne    2417 <subdir+0x447>
  {
    printf(1, "dd/dd/../ff wrong content\n");
    exit(FAIL_STATUS);
  }
  close(fd);
    20ea:	83 ec 0c             	sub    $0xc,%esp
    20ed:	53                   	push   %ebx
    20ee:	e8 b7 1d 00 00       	call   3eaa <close>

  if (link("dd/dd/ff", "dd/dd/ffff") != 0)
    20f3:	58                   	pop    %eax
    20f4:	5a                   	pop    %edx
    20f5:	68 0a 4b 00 00       	push   $0x4b0a
    20fa:	68 a6 4a 00 00       	push   $0x4aa6
    20ff:	e8 de 1d 00 00       	call   3ee2 <link>
    2104:	83 c4 10             	add    $0x10,%esp
    2107:	85 c0                	test   %eax,%eax
    2109:	0f 85 96 06 00 00    	jne    27a5 <subdir+0x7d5>
  {
    printf(1, "link dd/dd/ff dd/dd/ffff failed\n");
    exit(FAIL_STATUS);
  }

  if (unlink("dd/dd/ff") != 0)
    210f:	83 ec 0c             	sub    $0xc,%esp
    2112:	68 a6 4a 00 00       	push   $0x4aa6
    2117:	e8 b6 1d 00 00       	call   3ed2 <unlink>
    211c:	83 c4 10             	add    $0x10,%esp
    211f:	85 c0                	test   %eax,%eax
    2121:	0f 85 64 06 00 00    	jne    278b <subdir+0x7bb>
  {
    printf(1, "unlink dd/dd/ff failed\n");
    exit(FAIL_STATUS);
  }
  if (open("dd/dd/ff", O_RDONLY) >= 0)
    2127:	83 ec 08             	sub    $0x8,%esp
    212a:	6a 00                	push   $0x0
    212c:	68 a6 4a 00 00       	push   $0x4aa6
    2131:	e8 8c 1d 00 00       	call   3ec2 <open>
    2136:	83 c4 10             	add    $0x10,%esp
    2139:	85 c0                	test   %eax,%eax
    213b:	0f 89 30 06 00 00    	jns    2771 <subdir+0x7a1>
  {
    printf(1, "open (unlinked) dd/dd/ff succeeded\n");
    exit(FAIL_STATUS);
  }

  if (chdir("dd") != 0)
    2141:	83 ec 0c             	sub    $0xc,%esp
    2144:	68 70 4b 00 00       	push   $0x4b70
    2149:	e8 a4 1d 00 00       	call   3ef2 <chdir>
    214e:	83 c4 10             	add    $0x10,%esp
    2151:	85 c0                	test   %eax,%eax
    2153:	0f 85 8e 03 00 00    	jne    24e7 <subdir+0x517>
  {
    printf(1, "chdir dd failed\n");
    exit(FAIL_STATUS);
  }
  if (chdir("dd/../../dd") != 0)
    2159:	83 ec 0c             	sub    $0xc,%esp
    215c:	68 3e 4b 00 00       	push   $0x4b3e
    2161:	e8 8c 1d 00 00       	call   3ef2 <chdir>
    2166:	83 c4 10             	add    $0x10,%esp
    2169:	85 c0                	test   %eax,%eax
    216b:	0f 85 c0 02 00 00    	jne    2431 <subdir+0x461>
  {
    printf(1, "chdir dd/../../dd failed\n");
    exit(FAIL_STATUS);
  }
  if (chdir("dd/../../../dd") != 0)
    2171:	83 ec 0c             	sub    $0xc,%esp
    2174:	68 64 4b 00 00       	push   $0x4b64
    2179:	e8 74 1d 00 00       	call   3ef2 <chdir>
    217e:	83 c4 10             	add    $0x10,%esp
    2181:	85 c0                	test   %eax,%eax
    2183:	0f 85 a8 02 00 00    	jne    2431 <subdir+0x461>
  {
    printf(1, "chdir dd/../../dd failed\n");
    exit(FAIL_STATUS);
  }
  if (chdir("./..") != 0)
    2189:	83 ec 0c             	sub    $0xc,%esp
    218c:	68 73 4b 00 00       	push   $0x4b73
    2191:	e8 5c 1d 00 00       	call   3ef2 <chdir>
    2196:	83 c4 10             	add    $0x10,%esp
    2199:	85 c0                	test   %eax,%eax
    219b:	0f 85 30 04 00 00    	jne    25d1 <subdir+0x601>
  {
    printf(1, "chdir ./.. failed\n");
    exit(FAIL_STATUS);
  }

  fd = open("dd/dd/ffff", 0);
    21a1:	83 ec 08             	sub    $0x8,%esp
    21a4:	6a 00                	push   $0x0
    21a6:	68 0a 4b 00 00       	push   $0x4b0a
    21ab:	e8 12 1d 00 00       	call   3ec2 <open>
  if (fd < 0)
    21b0:	83 c4 10             	add    $0x10,%esp
    21b3:	85 c0                	test   %eax,%eax
  {
    printf(1, "chdir ./.. failed\n");
    exit(FAIL_STATUS);
  }

  fd = open("dd/dd/ffff", 0);
    21b5:	89 c3                	mov    %eax,%ebx
  if (fd < 0)
    21b7:	0f 88 48 04 00 00    	js     2605 <subdir+0x635>
  {
    printf(1, "open dd/dd/ffff failed\n");
    exit(FAIL_STATUS);
  }
  if (read(fd, buf, sizeof(buf)) != 2)
    21bd:	83 ec 04             	sub    $0x4,%esp
    21c0:	68 00 20 00 00       	push   $0x2000
    21c5:	68 80 8b 00 00       	push   $0x8b80
    21ca:	50                   	push   %eax
    21cb:	e8 ca 1c 00 00       	call   3e9a <read>
    21d0:	83 c4 10             	add    $0x10,%esp
    21d3:	83 f8 02             	cmp    $0x2,%eax
    21d6:	0f 85 0f 04 00 00    	jne    25eb <subdir+0x61b>
  {
    printf(1, "read dd/dd/ffff wrong len\n");
    exit(FAIL_STATUS);
  }
  close(fd);
    21dc:	83 ec 0c             	sub    $0xc,%esp
    21df:	53                   	push   %ebx
    21e0:	e8 c5 1c 00 00       	call   3eaa <close>

  if (open("dd/dd/ff", O_RDONLY) >= 0)
    21e5:	5b                   	pop    %ebx
    21e6:	58                   	pop    %eax
    21e7:	6a 00                	push   $0x0
    21e9:	68 a6 4a 00 00       	push   $0x4aa6
    21ee:	e8 cf 1c 00 00       	call   3ec2 <open>
    21f3:	83 c4 10             	add    $0x10,%esp
    21f6:	85 c0                	test   %eax,%eax
    21f8:	0f 89 67 02 00 00    	jns    2465 <subdir+0x495>
  {
    printf(1, "open (unlinked) dd/dd/ff succeeded!\n");
    exit(PASS_STATUS);
  }

  if (open("dd/ff/ff", O_CREATE | O_RDWR) >= 0)
    21fe:	83 ec 08             	sub    $0x8,%esp
    2201:	68 02 02 00 00       	push   $0x202
    2206:	68 be 4b 00 00       	push   $0x4bbe
    220b:	e8 b2 1c 00 00       	call   3ec2 <open>
    2210:	83 c4 10             	add    $0x10,%esp
    2213:	85 c0                	test   %eax,%eax
    2215:	0f 89 30 02 00 00    	jns    244b <subdir+0x47b>
  {
    printf(1, "create dd/ff/ff succeeded!\n");
    exit(PASS_STATUS);
  }
  if (open("dd/xx/ff", O_CREATE | O_RDWR) >= 0)
    221b:	83 ec 08             	sub    $0x8,%esp
    221e:	68 02 02 00 00       	push   $0x202
    2223:	68 e3 4b 00 00       	push   $0x4be3
    2228:	e8 95 1c 00 00       	call   3ec2 <open>
    222d:	83 c4 10             	add    $0x10,%esp
    2230:	85 c0                	test   %eax,%eax
    2232:	0f 89 47 02 00 00    	jns    247f <subdir+0x4af>
  {
    printf(1, "create dd/xx/ff succeeded!\n");
    exit(PASS_STATUS);
  }
  if (open("dd", O_CREATE) >= 0)
    2238:	83 ec 08             	sub    $0x8,%esp
    223b:	68 00 02 00 00       	push   $0x200
    2240:	68 70 4b 00 00       	push   $0x4b70
    2245:	e8 78 1c 00 00       	call   3ec2 <open>
    224a:	83 c4 10             	add    $0x10,%esp
    224d:	85 c0                	test   %eax,%eax
    224f:	0f 89 62 03 00 00    	jns    25b7 <subdir+0x5e7>
  {
    printf(1, "create dd succeeded!\n");
    exit(PASS_STATUS);
  }
  if (open("dd", O_RDWR) >= 0)
    2255:	83 ec 08             	sub    $0x8,%esp
    2258:	6a 02                	push   $0x2
    225a:	68 70 4b 00 00       	push   $0x4b70
    225f:	e8 5e 1c 00 00       	call   3ec2 <open>
    2264:	83 c4 10             	add    $0x10,%esp
    2267:	85 c0                	test   %eax,%eax
    2269:	0f 89 2e 03 00 00    	jns    259d <subdir+0x5cd>
  {
    printf(1, "open dd rdwr succeeded!\n");
    exit(PASS_STATUS);
  }
  if (open("dd", O_WRONLY) >= 0)
    226f:	83 ec 08             	sub    $0x8,%esp
    2272:	6a 01                	push   $0x1
    2274:	68 70 4b 00 00       	push   $0x4b70
    2279:	e8 44 1c 00 00       	call   3ec2 <open>
    227e:	83 c4 10             	add    $0x10,%esp
    2281:	85 c0                	test   %eax,%eax
    2283:	0f 89 fa 02 00 00    	jns    2583 <subdir+0x5b3>
  {
    printf(1, "open dd wronly succeeded!\n");
    exit(PASS_STATUS);
  }
  if (link("dd/ff/ff", "dd/dd/xx") == 0)
    2289:	83 ec 08             	sub    $0x8,%esp
    228c:	68 52 4c 00 00       	push   $0x4c52
    2291:	68 be 4b 00 00       	push   $0x4bbe
    2296:	e8 47 1c 00 00       	call   3ee2 <link>
    229b:	83 c4 10             	add    $0x10,%esp
    229e:	85 c0                	test   %eax,%eax
    22a0:	0f 84 c3 02 00 00    	je     2569 <subdir+0x599>
  {
    printf(1, "link dd/ff/ff dd/dd/xx succeeded!\n");
    exit(PASS_STATUS);
  }
  if (link("dd/xx/ff", "dd/dd/xx") == 0)
    22a6:	83 ec 08             	sub    $0x8,%esp
    22a9:	68 52 4c 00 00       	push   $0x4c52
    22ae:	68 e3 4b 00 00       	push   $0x4be3
    22b3:	e8 2a 1c 00 00       	call   3ee2 <link>
    22b8:	83 c4 10             	add    $0x10,%esp
    22bb:	85 c0                	test   %eax,%eax
    22bd:	0f 84 8c 02 00 00    	je     254f <subdir+0x57f>
  {
    printf(1, "link dd/xx/ff dd/dd/xx succeeded!\n");
    exit(PASS_STATUS);
  }
  if (link("dd/ff", "dd/dd/ffff") == 0)
    22c3:	83 ec 08             	sub    $0x8,%esp
    22c6:	68 0a 4b 00 00       	push   $0x4b0a
    22cb:	68 a9 4a 00 00       	push   $0x4aa9
    22d0:	e8 0d 1c 00 00       	call   3ee2 <link>
    22d5:	83 c4 10             	add    $0x10,%esp
    22d8:	85 c0                	test   %eax,%eax
    22da:	0f 84 d3 01 00 00    	je     24b3 <subdir+0x4e3>
  {
    printf(1, "link dd/ff dd/dd/ffff succeeded!\n");
    exit(PASS_STATUS);
  }
  if (mkdir("dd/ff/ff") == 0)
    22e0:	83 ec 0c             	sub    $0xc,%esp
    22e3:	68 be 4b 00 00       	push   $0x4bbe
    22e8:	e8 fd 1b 00 00       	call   3eea <mkdir>
    22ed:	83 c4 10             	add    $0x10,%esp
    22f0:	85 c0                	test   %eax,%eax
    22f2:	0f 84 a1 01 00 00    	je     2499 <subdir+0x4c9>
  {
    printf(1, "mkdir dd/ff/ff succeeded!\n");
    exit(PASS_STATUS);
  }
  if (mkdir("dd/xx/ff") == 0)
    22f8:	83 ec 0c             	sub    $0xc,%esp
    22fb:	68 e3 4b 00 00       	push   $0x4be3
    2300:	e8 e5 1b 00 00       	call   3eea <mkdir>
    2305:	83 c4 10             	add    $0x10,%esp
    2308:	85 c0                	test   %eax,%eax
    230a:	0f 84 bd 01 00 00    	je     24cd <subdir+0x4fd>
  {
    printf(1, "mkdir dd/xx/ff succeeded!\n");
    exit(PASS_STATUS);
  }
  if (mkdir("dd/dd/ffff") == 0)
    2310:	83 ec 0c             	sub    $0xc,%esp
    2313:	68 0a 4b 00 00       	push   $0x4b0a
    2318:	e8 cd 1b 00 00       	call   3eea <mkdir>
    231d:	83 c4 10             	add    $0x10,%esp
    2320:	85 c0                	test   %eax,%eax
    2322:	0f 84 2f 04 00 00    	je     2757 <subdir+0x787>
  {
    printf(1, "mkdir dd/dd/ffff succeeded!\n");
    exit(PASS_STATUS);
  }
  if (unlink("dd/xx/ff") == 0)
    2328:	83 ec 0c             	sub    $0xc,%esp
    232b:	68 e3 4b 00 00       	push   $0x4be3
    2330:	e8 9d 1b 00 00       	call   3ed2 <unlink>
    2335:	83 c4 10             	add    $0x10,%esp
    2338:	85 c0                	test   %eax,%eax
    233a:	0f 84 fd 03 00 00    	je     273d <subdir+0x76d>
  {
    printf(1, "unlink dd/xx/ff succeeded!\n");
    exit(PASS_STATUS);
  }
  if (unlink("dd/ff/ff") == 0)
    2340:	83 ec 0c             	sub    $0xc,%esp
    2343:	68 be 4b 00 00       	push   $0x4bbe
    2348:	e8 85 1b 00 00       	call   3ed2 <unlink>
    234d:	83 c4 10             	add    $0x10,%esp
    2350:	85 c0                	test   %eax,%eax
    2352:	0f 84 cb 03 00 00    	je     2723 <subdir+0x753>
  {
    printf(1, "unlink dd/ff/ff succeeded!\n");
    exit(PASS_STATUS);
  }
  if (chdir("dd/ff") == 0)
    2358:	83 ec 0c             	sub    $0xc,%esp
    235b:	68 a9 4a 00 00       	push   $0x4aa9
    2360:	e8 8d 1b 00 00       	call   3ef2 <chdir>
    2365:	83 c4 10             	add    $0x10,%esp
    2368:	85 c0                	test   %eax,%eax
    236a:	0f 84 99 03 00 00    	je     2709 <subdir+0x739>
  {
    printf(1, "chdir dd/ff succeeded!\n");
    exit(PASS_STATUS);
  }
  if (chdir("dd/xx") == 0)
    2370:	83 ec 0c             	sub    $0xc,%esp
    2373:	68 55 4c 00 00       	push   $0x4c55
    2378:	e8 75 1b 00 00       	call   3ef2 <chdir>
    237d:	83 c4 10             	add    $0x10,%esp
    2380:	85 c0                	test   %eax,%eax
    2382:	0f 84 67 03 00 00    	je     26ef <subdir+0x71f>
  {
    printf(1, "chdir dd/xx succeeded!\n");
    exit(PASS_STATUS);
  }

  if (unlink("dd/dd/ffff") != 0)
    2388:	83 ec 0c             	sub    $0xc,%esp
    238b:	68 0a 4b 00 00       	push   $0x4b0a
    2390:	e8 3d 1b 00 00       	call   3ed2 <unlink>
    2395:	83 c4 10             	add    $0x10,%esp
    2398:	85 c0                	test   %eax,%eax
    239a:	0f 85 35 03 00 00    	jne    26d5 <subdir+0x705>
  {
    printf(1, "unlink dd/dd/ff failed\n");
    exit(PASS_STATUS);
  }
  if (unlink("dd/ff") != 0)
    23a0:	83 ec 0c             	sub    $0xc,%esp
    23a3:	68 a9 4a 00 00       	push   $0x4aa9
    23a8:	e8 25 1b 00 00       	call   3ed2 <unlink>
    23ad:	83 c4 10             	add    $0x10,%esp
    23b0:	85 c0                	test   %eax,%eax
    23b2:	0f 85 03 03 00 00    	jne    26bb <subdir+0x6eb>
  {
    printf(1, "unlink dd/ff failed\n");
    exit(PASS_STATUS);
  }
  if (unlink("dd") == 0)
    23b8:	83 ec 0c             	sub    $0xc,%esp
    23bb:	68 70 4b 00 00       	push   $0x4b70
    23c0:	e8 0d 1b 00 00       	call   3ed2 <unlink>
    23c5:	83 c4 10             	add    $0x10,%esp
    23c8:	85 c0                	test   %eax,%eax
    23ca:	0f 84 d1 02 00 00    	je     26a1 <subdir+0x6d1>
  {
    printf(1, "unlink non-empty dd succeeded!\n");
    exit(PASS_STATUS);
  }
  if (unlink("dd/dd") < 0)
    23d0:	83 ec 0c             	sub    $0xc,%esp
    23d3:	68 85 4a 00 00       	push   $0x4a85
    23d8:	e8 f5 1a 00 00       	call   3ed2 <unlink>
    23dd:	83 c4 10             	add    $0x10,%esp
    23e0:	85 c0                	test   %eax,%eax
    23e2:	0f 88 9f 02 00 00    	js     2687 <subdir+0x6b7>
  {
    printf(1, "unlink dd/dd failed\n");
    exit(PASS_STATUS);
  }
  if (unlink("dd") < 0)
    23e8:	83 ec 0c             	sub    $0xc,%esp
    23eb:	68 70 4b 00 00       	push   $0x4b70
    23f0:	e8 dd 1a 00 00       	call   3ed2 <unlink>
    23f5:	83 c4 10             	add    $0x10,%esp
    23f8:	85 c0                	test   %eax,%eax
    23fa:	0f 88 6d 02 00 00    	js     266d <subdir+0x69d>
  {
    printf(1, "unlink dd failed\n");
    exit(PASS_STATUS);
  }

  printf(1, "subdir ok\n");
    2400:	83 ec 08             	sub    $0x8,%esp
    2403:	68 52 4d 00 00       	push   $0x4d52
    2408:	6a 01                	push   $0x1
    240a:	e8 d1 1b 00 00       	call   3fe0 <printf>
}
    240f:	83 c4 10             	add    $0x10,%esp
    2412:	8b 5d fc             	mov    -0x4(%ebp),%ebx
    2415:	c9                   	leave  
    2416:	c3                   	ret    
    exit(FAIL_STATUS);
  }
  cc = read(fd, buf, sizeof(buf));
  if (cc != 2 || buf[0] != 'f')
  {
    printf(1, "dd/dd/../ff wrong content\n");
    2417:	51                   	push   %ecx
    2418:	51                   	push   %ecx
    2419:	68 ef 4a 00 00       	push   $0x4aef
    241e:	6a 01                	push   $0x1
    2420:	e8 bb 1b 00 00       	call   3fe0 <printf>
    exit(FAIL_STATUS);
    2425:	c7 04 24 00 00 00 00 	movl   $0x0,(%esp)
    242c:	e8 51 1a 00 00       	call   3e82 <exit>
    printf(1, "chdir dd failed\n");
    exit(FAIL_STATUS);
  }
  if (chdir("dd/../../dd") != 0)
  {
    printf(1, "chdir dd/../../dd failed\n");
    2431:	50                   	push   %eax
    2432:	50                   	push   %eax
    2433:	68 4a 4b 00 00       	push   $0x4b4a
    2438:	6a 01                	push   $0x1
    243a:	e8 a1 1b 00 00       	call   3fe0 <printf>
    exit(FAIL_STATUS);
    243f:	c7 04 24 00 00 00 00 	movl   $0x0,(%esp)
    2446:	e8 37 1a 00 00       	call   3e82 <exit>
    exit(PASS_STATUS);
  }

  if (open("dd/ff/ff", O_CREATE | O_RDWR) >= 0)
  {
    printf(1, "create dd/ff/ff succeeded!\n");
    244b:	52                   	push   %edx
    244c:	52                   	push   %edx
    244d:	68 c7 4b 00 00       	push   $0x4bc7
    2452:	6a 01                	push   $0x1
    2454:	e8 87 1b 00 00       	call   3fe0 <printf>
    exit(PASS_STATUS);
    2459:	c7 04 24 01 00 00 00 	movl   $0x1,(%esp)
    2460:	e8 1d 1a 00 00       	call   3e82 <exit>
  }
  close(fd);

  if (open("dd/dd/ff", O_RDONLY) >= 0)
  {
    printf(1, "open (unlinked) dd/dd/ff succeeded!\n");
    2465:	51                   	push   %ecx
    2466:	51                   	push   %ecx
    2467:	68 ac 55 00 00       	push   $0x55ac
    246c:	6a 01                	push   $0x1
    246e:	e8 6d 1b 00 00       	call   3fe0 <printf>
    exit(PASS_STATUS);
    2473:	c7 04 24 01 00 00 00 	movl   $0x1,(%esp)
    247a:	e8 03 1a 00 00       	call   3e82 <exit>
    printf(1, "create dd/ff/ff succeeded!\n");
    exit(PASS_STATUS);
  }
  if (open("dd/xx/ff", O_CREATE | O_RDWR) >= 0)
  {
    printf(1, "create dd/xx/ff succeeded!\n");
    247f:	50                   	push   %eax
    2480:	50                   	push   %eax
    2481:	68 ec 4b 00 00       	push   $0x4bec
    2486:	6a 01                	push   $0x1
    2488:	e8 53 1b 00 00       	call   3fe0 <printf>
    exit(PASS_STATUS);
    248d:	c7 04 24 01 00 00 00 	movl   $0x1,(%esp)
    2494:	e8 e9 19 00 00       	call   3e82 <exit>
    printf(1, "link dd/ff dd/dd/ffff succeeded!\n");
    exit(PASS_STATUS);
  }
  if (mkdir("dd/ff/ff") == 0)
  {
    printf(1, "mkdir dd/ff/ff succeeded!\n");
    2499:	51                   	push   %ecx
    249a:	51                   	push   %ecx
    249b:	68 5b 4c 00 00       	push   $0x4c5b
    24a0:	6a 01                	push   $0x1
    24a2:	e8 39 1b 00 00       	call   3fe0 <printf>
    exit(PASS_STATUS);
    24a7:	c7 04 24 01 00 00 00 	movl   $0x1,(%esp)
    24ae:	e8 cf 19 00 00       	call   3e82 <exit>
    printf(1, "link dd/xx/ff dd/dd/xx succeeded!\n");
    exit(PASS_STATUS);
  }
  if (link("dd/ff", "dd/dd/ffff") == 0)
  {
    printf(1, "link dd/ff dd/dd/ffff succeeded!\n");
    24b3:	53                   	push   %ebx
    24b4:	53                   	push   %ebx
    24b5:	68 1c 56 00 00       	push   $0x561c
    24ba:	6a 01                	push   $0x1
    24bc:	e8 1f 1b 00 00       	call   3fe0 <printf>
    exit(PASS_STATUS);
    24c1:	c7 04 24 01 00 00 00 	movl   $0x1,(%esp)
    24c8:	e8 b5 19 00 00       	call   3e82 <exit>
    printf(1, "mkdir dd/ff/ff succeeded!\n");
    exit(PASS_STATUS);
  }
  if (mkdir("dd/xx/ff") == 0)
  {
    printf(1, "mkdir dd/xx/ff succeeded!\n");
    24cd:	52                   	push   %edx
    24ce:	52                   	push   %edx
    24cf:	68 76 4c 00 00       	push   $0x4c76
    24d4:	6a 01                	push   $0x1
    24d6:	e8 05 1b 00 00       	call   3fe0 <printf>
    exit(PASS_STATUS);
    24db:	c7 04 24 01 00 00 00 	movl   $0x1,(%esp)
    24e2:	e8 9b 19 00 00       	call   3e82 <exit>
    exit(FAIL_STATUS);
  }

  if (chdir("dd") != 0)
  {
    printf(1, "chdir dd failed\n");
    24e7:	50                   	push   %eax
    24e8:	50                   	push   %eax
    24e9:	68 2d 4b 00 00       	push   $0x4b2d
    24ee:	6a 01                	push   $0x1
    24f0:	e8 eb 1a 00 00       	call   3fe0 <printf>
    exit(FAIL_STATUS);
    24f5:	c7 04 24 00 00 00 00 	movl   $0x0,(%esp)
    24fc:	e8 81 19 00 00       	call   3e82 <exit>
    exit(PASS_STATUS);
  }

  if (mkdir("/dd/dd") != 0)
  {
    printf(1, "subdir mkdir dd/dd failed\n");
    2501:	53                   	push   %ebx
    2502:	53                   	push   %ebx
    2503:	68 8b 4a 00 00       	push   $0x4a8b
    2508:	6a 01                	push   $0x1
    250a:	e8 d1 1a 00 00       	call   3fe0 <printf>
    exit(FAIL_STATUS);
    250f:	c7 04 24 00 00 00 00 	movl   $0x0,(%esp)
    2516:	e8 67 19 00 00       	call   3e82 <exit>
  close(fd);

  fd = open("dd/dd/../ff", 0);
  if (fd < 0)
  {
    printf(1, "open dd/dd/../ff failed\n");
    251b:	53                   	push   %ebx
    251c:	53                   	push   %ebx
    251d:	68 d6 4a 00 00       	push   $0x4ad6
    2522:	6a 01                	push   $0x1
    2524:	e8 b7 1a 00 00       	call   3fe0 <printf>
    exit(FAIL_STATUS);
    2529:	c7 04 24 00 00 00 00 	movl   $0x0,(%esp)
    2530:	e8 4d 19 00 00       	call   3e82 <exit>
  }

  fd = open("dd/dd/ff", O_CREATE | O_RDWR);
  if (fd < 0)
  {
    printf(1, "create dd/dd/ff failed\n");
    2535:	51                   	push   %ecx
    2536:	51                   	push   %ecx
    2537:	68 af 4a 00 00       	push   $0x4aaf
    253c:	6a 01                	push   $0x1
    253e:	e8 9d 1a 00 00       	call   3fe0 <printf>
    exit(FAIL_STATUS);
    2543:	c7 04 24 00 00 00 00 	movl   $0x0,(%esp)
    254a:	e8 33 19 00 00       	call   3e82 <exit>
    printf(1, "link dd/ff/ff dd/dd/xx succeeded!\n");
    exit(PASS_STATUS);
  }
  if (link("dd/xx/ff", "dd/dd/xx") == 0)
  {
    printf(1, "link dd/xx/ff dd/dd/xx succeeded!\n");
    254f:	50                   	push   %eax
    2550:	50                   	push   %eax
    2551:	68 f8 55 00 00       	push   $0x55f8
    2556:	6a 01                	push   $0x1
    2558:	e8 83 1a 00 00       	call   3fe0 <printf>
    exit(PASS_STATUS);
    255d:	c7 04 24 01 00 00 00 	movl   $0x1,(%esp)
    2564:	e8 19 19 00 00       	call   3e82 <exit>
    printf(1, "open dd wronly succeeded!\n");
    exit(PASS_STATUS);
  }
  if (link("dd/ff/ff", "dd/dd/xx") == 0)
  {
    printf(1, "link dd/ff/ff dd/dd/xx succeeded!\n");
    2569:	50                   	push   %eax
    256a:	50                   	push   %eax
    256b:	68 d4 55 00 00       	push   $0x55d4
    2570:	6a 01                	push   $0x1
    2572:	e8 69 1a 00 00       	call   3fe0 <printf>
    exit(PASS_STATUS);
    2577:	c7 04 24 01 00 00 00 	movl   $0x1,(%esp)
    257e:	e8 ff 18 00 00       	call   3e82 <exit>
    printf(1, "open dd rdwr succeeded!\n");
    exit(PASS_STATUS);
  }
  if (open("dd", O_WRONLY) >= 0)
  {
    printf(1, "open dd wronly succeeded!\n");
    2583:	50                   	push   %eax
    2584:	50                   	push   %eax
    2585:	68 37 4c 00 00       	push   $0x4c37
    258a:	6a 01                	push   $0x1
    258c:	e8 4f 1a 00 00       	call   3fe0 <printf>
    exit(PASS_STATUS);
    2591:	c7 04 24 01 00 00 00 	movl   $0x1,(%esp)
    2598:	e8 e5 18 00 00       	call   3e82 <exit>
    printf(1, "create dd succeeded!\n");
    exit(PASS_STATUS);
  }
  if (open("dd", O_RDWR) >= 0)
  {
    printf(1, "open dd rdwr succeeded!\n");
    259d:	50                   	push   %eax
    259e:	50                   	push   %eax
    259f:	68 1e 4c 00 00       	push   $0x4c1e
    25a4:	6a 01                	push   $0x1
    25a6:	e8 35 1a 00 00       	call   3fe0 <printf>
    exit(PASS_STATUS);
    25ab:	c7 04 24 01 00 00 00 	movl   $0x1,(%esp)
    25b2:	e8 cb 18 00 00       	call   3e82 <exit>
    printf(1, "create dd/xx/ff succeeded!\n");
    exit(PASS_STATUS);
  }
  if (open("dd", O_CREATE) >= 0)
  {
    printf(1, "create dd succeeded!\n");
    25b7:	50                   	push   %eax
    25b8:	50                   	push   %eax
    25b9:	68 08 4c 00 00       	push   $0x4c08
    25be:	6a 01                	push   $0x1
    25c0:	e8 1b 1a 00 00       	call   3fe0 <printf>
    exit(PASS_STATUS);
    25c5:	c7 04 24 01 00 00 00 	movl   $0x1,(%esp)
    25cc:	e8 b1 18 00 00       	call   3e82 <exit>
    printf(1, "chdir dd/../../dd failed\n");
    exit(FAIL_STATUS);
  }
  if (chdir("./..") != 0)
  {
    printf(1, "chdir ./.. failed\n");
    25d1:	50                   	push   %eax
    25d2:	50                   	push   %eax
    25d3:	68 78 4b 00 00       	push   $0x4b78
    25d8:	6a 01                	push   $0x1
    25da:	e8 01 1a 00 00       	call   3fe0 <printf>
    exit(FAIL_STATUS);
    25df:	c7 04 24 00 00 00 00 	movl   $0x0,(%esp)
    25e6:	e8 97 18 00 00       	call   3e82 <exit>
    printf(1, "open dd/dd/ffff failed\n");
    exit(FAIL_STATUS);
  }
  if (read(fd, buf, sizeof(buf)) != 2)
  {
    printf(1, "read dd/dd/ffff wrong len\n");
    25eb:	50                   	push   %eax
    25ec:	50                   	push   %eax
    25ed:	68 a3 4b 00 00       	push   $0x4ba3
    25f2:	6a 01                	push   $0x1
    25f4:	e8 e7 19 00 00       	call   3fe0 <printf>
    exit(FAIL_STATUS);
    25f9:	c7 04 24 00 00 00 00 	movl   $0x0,(%esp)
    2600:	e8 7d 18 00 00       	call   3e82 <exit>
  }

  fd = open("dd/dd/ffff", 0);
  if (fd < 0)
  {
    printf(1, "open dd/dd/ffff failed\n");
    2605:	50                   	push   %eax
    2606:	50                   	push   %eax
    2607:	68 8b 4b 00 00       	push   $0x4b8b
    260c:	6a 01                	push   $0x1
    260e:	e8 cd 19 00 00       	call   3fe0 <printf>
    exit(FAIL_STATUS);
    2613:	c7 04 24 00 00 00 00 	movl   $0x0,(%esp)
    261a:	e8 63 18 00 00       	call   3e82 <exit>
  write(fd, "ff", 2);
  close(fd);

  if (unlink("dd") >= 0)
  {
    printf(1, "unlink dd (non-empty dir) succeeded!\n");
    261f:	50                   	push   %eax
    2620:	50                   	push   %eax
    2621:	68 3c 55 00 00       	push   $0x553c
    2626:	6a 01                	push   $0x1
    2628:	e8 b3 19 00 00       	call   3fe0 <printf>
    exit(PASS_STATUS);
    262d:	c7 04 24 01 00 00 00 	movl   $0x1,(%esp)
    2634:	e8 49 18 00 00       	call   3e82 <exit>
  }

  fd = open("dd/ff", O_CREATE | O_RDWR);
  if (fd < 0)
  {
    printf(1, "create dd/ff failed\n");
    2639:	50                   	push   %eax
    263a:	50                   	push   %eax
    263b:	68 6f 4a 00 00       	push   $0x4a6f
    2640:	6a 01                	push   $0x1
    2642:	e8 99 19 00 00       	call   3fe0 <printf>
    exit(FAIL_STATUS);
    2647:	c7 04 24 00 00 00 00 	movl   $0x0,(%esp)
    264e:	e8 2f 18 00 00       	call   3e82 <exit>
  printf(1, "subdir test\n");

  unlink("ff");
  if (mkdir("dd") != 0)
  {
    printf(1, "subdir mkdir dd failed\n");
    2653:	50                   	push   %eax
    2654:	50                   	push   %eax
    2655:	68 57 4a 00 00       	push   $0x4a57
    265a:	6a 01                	push   $0x1
    265c:	e8 7f 19 00 00       	call   3fe0 <printf>
    exit(FAIL_STATUS);
    2661:	c7 04 24 00 00 00 00 	movl   $0x0,(%esp)
    2668:	e8 15 18 00 00       	call   3e82 <exit>
    printf(1, "unlink dd/dd failed\n");
    exit(PASS_STATUS);
  }
  if (unlink("dd") < 0)
  {
    printf(1, "unlink dd failed\n");
    266d:	50                   	push   %eax
    266e:	50                   	push   %eax
    266f:	68 40 4d 00 00       	push   $0x4d40
    2674:	6a 01                	push   $0x1
    2676:	e8 65 19 00 00       	call   3fe0 <printf>
    exit(PASS_STATUS);
    267b:	c7 04 24 01 00 00 00 	movl   $0x1,(%esp)
    2682:	e8 fb 17 00 00       	call   3e82 <exit>
    printf(1, "unlink non-empty dd succeeded!\n");
    exit(PASS_STATUS);
  }
  if (unlink("dd/dd") < 0)
  {
    printf(1, "unlink dd/dd failed\n");
    2687:	52                   	push   %edx
    2688:	52                   	push   %edx
    2689:	68 2b 4d 00 00       	push   $0x4d2b
    268e:	6a 01                	push   $0x1
    2690:	e8 4b 19 00 00       	call   3fe0 <printf>
    exit(PASS_STATUS);
    2695:	c7 04 24 01 00 00 00 	movl   $0x1,(%esp)
    269c:	e8 e1 17 00 00       	call   3e82 <exit>
    printf(1, "unlink dd/ff failed\n");
    exit(PASS_STATUS);
  }
  if (unlink("dd") == 0)
  {
    printf(1, "unlink non-empty dd succeeded!\n");
    26a1:	51                   	push   %ecx
    26a2:	51                   	push   %ecx
    26a3:	68 40 56 00 00       	push   $0x5640
    26a8:	6a 01                	push   $0x1
    26aa:	e8 31 19 00 00       	call   3fe0 <printf>
    exit(PASS_STATUS);
    26af:	c7 04 24 01 00 00 00 	movl   $0x1,(%esp)
    26b6:	e8 c7 17 00 00       	call   3e82 <exit>
    printf(1, "unlink dd/dd/ff failed\n");
    exit(PASS_STATUS);
  }
  if (unlink("dd/ff") != 0)
  {
    printf(1, "unlink dd/ff failed\n");
    26bb:	53                   	push   %ebx
    26bc:	53                   	push   %ebx
    26bd:	68 16 4d 00 00       	push   $0x4d16
    26c2:	6a 01                	push   $0x1
    26c4:	e8 17 19 00 00       	call   3fe0 <printf>
    exit(PASS_STATUS);
    26c9:	c7 04 24 01 00 00 00 	movl   $0x1,(%esp)
    26d0:	e8 ad 17 00 00       	call   3e82 <exit>
    exit(PASS_STATUS);
  }

  if (unlink("dd/dd/ffff") != 0)
  {
    printf(1, "unlink dd/dd/ff failed\n");
    26d5:	50                   	push   %eax
    26d6:	50                   	push   %eax
    26d7:	68 15 4b 00 00       	push   $0x4b15
    26dc:	6a 01                	push   $0x1
    26de:	e8 fd 18 00 00       	call   3fe0 <printf>
    exit(PASS_STATUS);
    26e3:	c7 04 24 01 00 00 00 	movl   $0x1,(%esp)
    26ea:	e8 93 17 00 00       	call   3e82 <exit>
    printf(1, "chdir dd/ff succeeded!\n");
    exit(PASS_STATUS);
  }
  if (chdir("dd/xx") == 0)
  {
    printf(1, "chdir dd/xx succeeded!\n");
    26ef:	50                   	push   %eax
    26f0:	50                   	push   %eax
    26f1:	68 fe 4c 00 00       	push   $0x4cfe
    26f6:	6a 01                	push   $0x1
    26f8:	e8 e3 18 00 00       	call   3fe0 <printf>
    exit(PASS_STATUS);
    26fd:	c7 04 24 01 00 00 00 	movl   $0x1,(%esp)
    2704:	e8 79 17 00 00       	call   3e82 <exit>
    printf(1, "unlink dd/ff/ff succeeded!\n");
    exit(PASS_STATUS);
  }
  if (chdir("dd/ff") == 0)
  {
    printf(1, "chdir dd/ff succeeded!\n");
    2709:	50                   	push   %eax
    270a:	50                   	push   %eax
    270b:	68 e6 4c 00 00       	push   $0x4ce6
    2710:	6a 01                	push   $0x1
    2712:	e8 c9 18 00 00       	call   3fe0 <printf>
    exit(PASS_STATUS);
    2717:	c7 04 24 01 00 00 00 	movl   $0x1,(%esp)
    271e:	e8 5f 17 00 00       	call   3e82 <exit>
    printf(1, "unlink dd/xx/ff succeeded!\n");
    exit(PASS_STATUS);
  }
  if (unlink("dd/ff/ff") == 0)
  {
    printf(1, "unlink dd/ff/ff succeeded!\n");
    2723:	50                   	push   %eax
    2724:	50                   	push   %eax
    2725:	68 ca 4c 00 00       	push   $0x4cca
    272a:	6a 01                	push   $0x1
    272c:	e8 af 18 00 00       	call   3fe0 <printf>
    exit(PASS_STATUS);
    2731:	c7 04 24 01 00 00 00 	movl   $0x1,(%esp)
    2738:	e8 45 17 00 00       	call   3e82 <exit>
    printf(1, "mkdir dd/dd/ffff succeeded!\n");
    exit(PASS_STATUS);
  }
  if (unlink("dd/xx/ff") == 0)
  {
    printf(1, "unlink dd/xx/ff succeeded!\n");
    273d:	50                   	push   %eax
    273e:	50                   	push   %eax
    273f:	68 ae 4c 00 00       	push   $0x4cae
    2744:	6a 01                	push   $0x1
    2746:	e8 95 18 00 00       	call   3fe0 <printf>
    exit(PASS_STATUS);
    274b:	c7 04 24 01 00 00 00 	movl   $0x1,(%esp)
    2752:	e8 2b 17 00 00       	call   3e82 <exit>
    printf(1, "mkdir dd/xx/ff succeeded!\n");
    exit(PASS_STATUS);
  }
  if (mkdir("dd/dd/ffff") == 0)
  {
    printf(1, "mkdir dd/dd/ffff succeeded!\n");
    2757:	50                   	push   %eax
    2758:	50                   	push   %eax
    2759:	68 91 4c 00 00       	push   $0x4c91
    275e:	6a 01                	push   $0x1
    2760:	e8 7b 18 00 00       	call   3fe0 <printf>
    exit(PASS_STATUS);
    2765:	c7 04 24 01 00 00 00 	movl   $0x1,(%esp)
    276c:	e8 11 17 00 00       	call   3e82 <exit>
    printf(1, "unlink dd/dd/ff failed\n");
    exit(FAIL_STATUS);
  }
  if (open("dd/dd/ff", O_RDONLY) >= 0)
  {
    printf(1, "open (unlinked) dd/dd/ff succeeded\n");
    2771:	52                   	push   %edx
    2772:	52                   	push   %edx
    2773:	68 88 55 00 00       	push   $0x5588
    2778:	6a 01                	push   $0x1
    277a:	e8 61 18 00 00       	call   3fe0 <printf>
    exit(FAIL_STATUS);
    277f:	c7 04 24 00 00 00 00 	movl   $0x0,(%esp)
    2786:	e8 f7 16 00 00       	call   3e82 <exit>
    exit(FAIL_STATUS);
  }

  if (unlink("dd/dd/ff") != 0)
  {
    printf(1, "unlink dd/dd/ff failed\n");
    278b:	51                   	push   %ecx
    278c:	51                   	push   %ecx
    278d:	68 15 4b 00 00       	push   $0x4b15
    2792:	6a 01                	push   $0x1
    2794:	e8 47 18 00 00       	call   3fe0 <printf>
    exit(FAIL_STATUS);
    2799:	c7 04 24 00 00 00 00 	movl   $0x0,(%esp)
    27a0:	e8 dd 16 00 00       	call   3e82 <exit>
  }
  close(fd);

  if (link("dd/dd/ff", "dd/dd/ffff") != 0)
  {
    printf(1, "link dd/dd/ff dd/dd/ffff failed\n");
    27a5:	53                   	push   %ebx
    27a6:	53                   	push   %ebx
    27a7:	68 64 55 00 00       	push   $0x5564
    27ac:	6a 01                	push   $0x1
    27ae:	e8 2d 18 00 00       	call   3fe0 <printf>
    exit(FAIL_STATUS);
    27b3:	c7 04 24 00 00 00 00 	movl   $0x0,(%esp)
    27ba:	e8 c3 16 00 00       	call   3e82 <exit>
    27bf:	90                   	nop

000027c0 <bigwrite>:
  printf(1, "subdir ok\n");
}

// test writes that are larger than the log.
void bigwrite(void)
{
    27c0:	55                   	push   %ebp
    27c1:	89 e5                	mov    %esp,%ebp
    27c3:	56                   	push   %esi
    27c4:	53                   	push   %ebx
  int fd, sz;

  printf(1, "bigwrite test\n");

  unlink("bigwrite");
  for (sz = 499; sz < 12 * 512; sz += 471)
    27c5:	bb f3 01 00 00       	mov    $0x1f3,%ebx
// test writes that are larger than the log.
void bigwrite(void)
{
  int fd, sz;

  printf(1, "bigwrite test\n");
    27ca:	83 ec 08             	sub    $0x8,%esp
    27cd:	68 5d 4d 00 00       	push   $0x4d5d
    27d2:	6a 01                	push   $0x1
    27d4:	e8 07 18 00 00       	call   3fe0 <printf>

  unlink("bigwrite");
    27d9:	c7 04 24 6c 4d 00 00 	movl   $0x4d6c,(%esp)
    27e0:	e8 ed 16 00 00       	call   3ed2 <unlink>
    27e5:	83 c4 10             	add    $0x10,%esp
    27e8:	90                   	nop
    27e9:	8d b4 26 00 00 00 00 	lea    0x0(%esi,%eiz,1),%esi
  for (sz = 499; sz < 12 * 512; sz += 471)
  {
    fd = open("bigwrite", O_CREATE | O_RDWR);
    27f0:	83 ec 08             	sub    $0x8,%esp
    27f3:	68 02 02 00 00       	push   $0x202
    27f8:	68 6c 4d 00 00       	push   $0x4d6c
    27fd:	e8 c0 16 00 00       	call   3ec2 <open>
    if (fd < 0)
    2802:	83 c4 10             	add    $0x10,%esp
    2805:	85 c0                	test   %eax,%eax
  printf(1, "bigwrite test\n");

  unlink("bigwrite");
  for (sz = 499; sz < 12 * 512; sz += 471)
  {
    fd = open("bigwrite", O_CREATE | O_RDWR);
    2807:	89 c6                	mov    %eax,%esi
    if (fd < 0)
    2809:	0f 88 85 00 00 00    	js     2894 <bigwrite+0xd4>
      exit(FAIL_STATUS);
    }
    int i;
    for (i = 0; i < 2; i++)
    {
      int cc = write(fd, buf, sz);
    280f:	83 ec 04             	sub    $0x4,%esp
    2812:	53                   	push   %ebx
    2813:	68 80 8b 00 00       	push   $0x8b80
    2818:	50                   	push   %eax
    2819:	e8 84 16 00 00       	call   3ea2 <write>
      if (cc != sz)
    281e:	83 c4 10             	add    $0x10,%esp
    2821:	39 c3                	cmp    %eax,%ebx
    2823:	75 55                	jne    287a <bigwrite+0xba>
      exit(FAIL_STATUS);
    }
    int i;
    for (i = 0; i < 2; i++)
    {
      int cc = write(fd, buf, sz);
    2825:	83 ec 04             	sub    $0x4,%esp
    2828:	53                   	push   %ebx
    2829:	68 80 8b 00 00       	push   $0x8b80
    282e:	56                   	push   %esi
    282f:	e8 6e 16 00 00       	call   3ea2 <write>
      if (cc != sz)
    2834:	83 c4 10             	add    $0x10,%esp
    2837:	39 c3                	cmp    %eax,%ebx
    2839:	75 3f                	jne    287a <bigwrite+0xba>
      {
        printf(1, "write(%d) ret %d\n", sz, cc);
        exit(FAIL_STATUS);
      }
    }
    close(fd);
    283b:	83 ec 0c             	sub    $0xc,%esp
  int fd, sz;

  printf(1, "bigwrite test\n");

  unlink("bigwrite");
  for (sz = 499; sz < 12 * 512; sz += 471)
    283e:	81 c3 d7 01 00 00    	add    $0x1d7,%ebx
      {
        printf(1, "write(%d) ret %d\n", sz, cc);
        exit(FAIL_STATUS);
      }
    }
    close(fd);
    2844:	56                   	push   %esi
    2845:	e8 60 16 00 00       	call   3eaa <close>
    unlink("bigwrite");
    284a:	c7 04 24 6c 4d 00 00 	movl   $0x4d6c,(%esp)
    2851:	e8 7c 16 00 00       	call   3ed2 <unlink>
  int fd, sz;

  printf(1, "bigwrite test\n");

  unlink("bigwrite");
  for (sz = 499; sz < 12 * 512; sz += 471)
    2856:	83 c4 10             	add    $0x10,%esp
    2859:	81 fb 07 18 00 00    	cmp    $0x1807,%ebx
    285f:	75 8f                	jne    27f0 <bigwrite+0x30>
    }
    close(fd);
    unlink("bigwrite");
  }

  printf(1, "bigwrite ok\n");
    2861:	83 ec 08             	sub    $0x8,%esp
    2864:	68 9f 4d 00 00       	push   $0x4d9f
    2869:	6a 01                	push   $0x1
    286b:	e8 70 17 00 00       	call   3fe0 <printf>
}
    2870:	83 c4 10             	add    $0x10,%esp
    2873:	8d 65 f8             	lea    -0x8(%ebp),%esp
    2876:	5b                   	pop    %ebx
    2877:	5e                   	pop    %esi
    2878:	5d                   	pop    %ebp
    2879:	c3                   	ret    
    for (i = 0; i < 2; i++)
    {
      int cc = write(fd, buf, sz);
      if (cc != sz)
      {
        printf(1, "write(%d) ret %d\n", sz, cc);
    287a:	50                   	push   %eax
    287b:	53                   	push   %ebx
    287c:	68 8d 4d 00 00       	push   $0x4d8d
    2881:	6a 01                	push   $0x1
    2883:	e8 58 17 00 00       	call   3fe0 <printf>
        exit(FAIL_STATUS);
    2888:	c7 04 24 00 00 00 00 	movl   $0x0,(%esp)
    288f:	e8 ee 15 00 00       	call   3e82 <exit>
  for (sz = 499; sz < 12 * 512; sz += 471)
  {
    fd = open("bigwrite", O_CREATE | O_RDWR);
    if (fd < 0)
    {
      printf(1, "cannot create bigwrite\n");
    2894:	83 ec 08             	sub    $0x8,%esp
    2897:	68 75 4d 00 00       	push   $0x4d75
    289c:	6a 01                	push   $0x1
    289e:	e8 3d 17 00 00       	call   3fe0 <printf>
      exit(FAIL_STATUS);
    28a3:	c7 04 24 00 00 00 00 	movl   $0x0,(%esp)
    28aa:	e8 d3 15 00 00       	call   3e82 <exit>
    28af:	90                   	nop

000028b0 <bigfile>:

  printf(1, "bigwrite ok\n");
}

void bigfile(void)
{
    28b0:	55                   	push   %ebp
    28b1:	89 e5                	mov    %esp,%ebp
    28b3:	57                   	push   %edi
    28b4:	56                   	push   %esi
    28b5:	53                   	push   %ebx
    28b6:	83 ec 14             	sub    $0x14,%esp
  int fd, i, total, cc;

  printf(1, "bigfile test\n");
    28b9:	68 ac 4d 00 00       	push   $0x4dac
    28be:	6a 01                	push   $0x1
    28c0:	e8 1b 17 00 00       	call   3fe0 <printf>

  unlink("bigfile");
    28c5:	c7 04 24 c8 4d 00 00 	movl   $0x4dc8,(%esp)
    28cc:	e8 01 16 00 00       	call   3ed2 <unlink>
  fd = open("bigfile", O_CREATE | O_RDWR);
    28d1:	5e                   	pop    %esi
    28d2:	5f                   	pop    %edi
    28d3:	68 02 02 00 00       	push   $0x202
    28d8:	68 c8 4d 00 00       	push   $0x4dc8
    28dd:	e8 e0 15 00 00       	call   3ec2 <open>
  if (fd < 0)
    28e2:	83 c4 10             	add    $0x10,%esp
    28e5:	85 c0                	test   %eax,%eax
    28e7:	0f 88 82 01 00 00    	js     2a6f <bigfile+0x1bf>
    28ed:	89 c6                	mov    %eax,%esi
    28ef:	31 db                	xor    %ebx,%ebx
    28f1:	8d b4 26 00 00 00 00 	lea    0x0(%esi,%eiz,1),%esi
    printf(1, "cannot create bigfile");
    exit(FAIL_STATUS);
  }
  for (i = 0; i < 20; i++)
  {
    memset(buf, i, 600);
    28f8:	83 ec 04             	sub    $0x4,%esp
    28fb:	68 58 02 00 00       	push   $0x258
    2900:	53                   	push   %ebx
    2901:	68 80 8b 00 00       	push   $0x8b80
    2906:	e8 e5 13 00 00       	call   3cf0 <memset>
    if (write(fd, buf, 600) != 600)
    290b:	83 c4 0c             	add    $0xc,%esp
    290e:	68 58 02 00 00       	push   $0x258
    2913:	68 80 8b 00 00       	push   $0x8b80
    2918:	56                   	push   %esi
    2919:	e8 84 15 00 00       	call   3ea2 <write>
    291e:	83 c4 10             	add    $0x10,%esp
    2921:	3d 58 02 00 00       	cmp    $0x258,%eax
    2926:	0f 85 0d 01 00 00    	jne    2a39 <bigfile+0x189>
  if (fd < 0)
  {
    printf(1, "cannot create bigfile");
    exit(FAIL_STATUS);
  }
  for (i = 0; i < 20; i++)
    292c:	83 c3 01             	add    $0x1,%ebx
    292f:	83 fb 14             	cmp    $0x14,%ebx
    2932:	75 c4                	jne    28f8 <bigfile+0x48>
    {
      printf(1, "write bigfile failed\n");
      exit(FAIL_STATUS);
    }
  }
  close(fd);
    2934:	83 ec 0c             	sub    $0xc,%esp
    2937:	56                   	push   %esi
    2938:	e8 6d 15 00 00       	call   3eaa <close>

  fd = open("bigfile", 0);
    293d:	59                   	pop    %ecx
    293e:	5b                   	pop    %ebx
    293f:	6a 00                	push   $0x0
    2941:	68 c8 4d 00 00       	push   $0x4dc8
    2946:	e8 77 15 00 00       	call   3ec2 <open>
  if (fd < 0)
    294b:	83 c4 10             	add    $0x10,%esp
    294e:	85 c0                	test   %eax,%eax
      exit(FAIL_STATUS);
    }
  }
  close(fd);

  fd = open("bigfile", 0);
    2950:	89 c6                	mov    %eax,%esi
  if (fd < 0)
    2952:	0f 88 fc 00 00 00    	js     2a54 <bigfile+0x1a4>
    2958:	31 db                	xor    %ebx,%ebx
    295a:	31 ff                	xor    %edi,%edi
    295c:	eb 30                	jmp    298e <bigfile+0xde>
    295e:	66 90                	xchg   %ax,%ax
      printf(1, "read bigfile failed\n");
      exit(FAIL_STATUS);
    }
    if (cc == 0)
      break;
    if (cc != 300)
    2960:	3d 2c 01 00 00       	cmp    $0x12c,%eax
    2965:	0f 85 98 00 00 00    	jne    2a03 <bigfile+0x153>
    {
      printf(1, "short read bigfile\n");
      exit(FAIL_STATUS);
    }
    if (buf[0] != i / 2 || buf[299] != i / 2)
    296b:	0f be 05 80 8b 00 00 	movsbl 0x8b80,%eax
    2972:	89 fa                	mov    %edi,%edx
    2974:	d1 fa                	sar    %edx
    2976:	39 d0                	cmp    %edx,%eax
    2978:	75 6e                	jne    29e8 <bigfile+0x138>
    297a:	0f be 15 ab 8c 00 00 	movsbl 0x8cab,%edx
    2981:	39 d0                	cmp    %edx,%eax
    2983:	75 63                	jne    29e8 <bigfile+0x138>
    {
      printf(1, "read bigfile wrong data\n");
      exit(FAIL_STATUS);
    }
    total += cc;
    2985:	81 c3 2c 01 00 00    	add    $0x12c,%ebx
  {
    printf(1, "cannot open bigfile\n");
    exit(FAIL_STATUS);
  }
  total = 0;
  for (i = 0;; i++)
    298b:	83 c7 01             	add    $0x1,%edi
  {
    cc = read(fd, buf, 300);
    298e:	83 ec 04             	sub    $0x4,%esp
    2991:	68 2c 01 00 00       	push   $0x12c
    2996:	68 80 8b 00 00       	push   $0x8b80
    299b:	56                   	push   %esi
    299c:	e8 f9 14 00 00       	call   3e9a <read>
    if (cc < 0)
    29a1:	83 c4 10             	add    $0x10,%esp
    29a4:	85 c0                	test   %eax,%eax
    29a6:	78 76                	js     2a1e <bigfile+0x16e>
    {
      printf(1, "read bigfile failed\n");
      exit(FAIL_STATUS);
    }
    if (cc == 0)
    29a8:	75 b6                	jne    2960 <bigfile+0xb0>
      printf(1, "read bigfile wrong data\n");
      exit(FAIL_STATUS);
    }
    total += cc;
  }
  close(fd);
    29aa:	83 ec 0c             	sub    $0xc,%esp
    29ad:	56                   	push   %esi
    29ae:	e8 f7 14 00 00       	call   3eaa <close>
  if (total != 20 * 600)
    29b3:	83 c4 10             	add    $0x10,%esp
    29b6:	81 fb e0 2e 00 00    	cmp    $0x2ee0,%ebx
    29bc:	0f 85 c8 00 00 00    	jne    2a8a <bigfile+0x1da>
  {
    printf(1, "read bigfile wrong total\n");
    exit(FAIL_STATUS);
  }
  unlink("bigfile");
    29c2:	83 ec 0c             	sub    $0xc,%esp
    29c5:	68 c8 4d 00 00       	push   $0x4dc8
    29ca:	e8 03 15 00 00       	call   3ed2 <unlink>

  printf(1, "bigfile test ok\n");
    29cf:	58                   	pop    %eax
    29d0:	5a                   	pop    %edx
    29d1:	68 57 4e 00 00       	push   $0x4e57
    29d6:	6a 01                	push   $0x1
    29d8:	e8 03 16 00 00       	call   3fe0 <printf>
}
    29dd:	83 c4 10             	add    $0x10,%esp
    29e0:	8d 65 f4             	lea    -0xc(%ebp),%esp
    29e3:	5b                   	pop    %ebx
    29e4:	5e                   	pop    %esi
    29e5:	5f                   	pop    %edi
    29e6:	5d                   	pop    %ebp
    29e7:	c3                   	ret    
      printf(1, "short read bigfile\n");
      exit(FAIL_STATUS);
    }
    if (buf[0] != i / 2 || buf[299] != i / 2)
    {
      printf(1, "read bigfile wrong data\n");
    29e8:	83 ec 08             	sub    $0x8,%esp
    29eb:	68 24 4e 00 00       	push   $0x4e24
    29f0:	6a 01                	push   $0x1
    29f2:	e8 e9 15 00 00       	call   3fe0 <printf>
      exit(FAIL_STATUS);
    29f7:	c7 04 24 00 00 00 00 	movl   $0x0,(%esp)
    29fe:	e8 7f 14 00 00       	call   3e82 <exit>
    }
    if (cc == 0)
      break;
    if (cc != 300)
    {
      printf(1, "short read bigfile\n");
    2a03:	83 ec 08             	sub    $0x8,%esp
    2a06:	68 10 4e 00 00       	push   $0x4e10
    2a0b:	6a 01                	push   $0x1
    2a0d:	e8 ce 15 00 00       	call   3fe0 <printf>
      exit(FAIL_STATUS);
    2a12:	c7 04 24 00 00 00 00 	movl   $0x0,(%esp)
    2a19:	e8 64 14 00 00       	call   3e82 <exit>
  for (i = 0;; i++)
  {
    cc = read(fd, buf, 300);
    if (cc < 0)
    {
      printf(1, "read bigfile failed\n");
    2a1e:	83 ec 08             	sub    $0x8,%esp
    2a21:	68 fb 4d 00 00       	push   $0x4dfb
    2a26:	6a 01                	push   $0x1
    2a28:	e8 b3 15 00 00       	call   3fe0 <printf>
      exit(FAIL_STATUS);
    2a2d:	c7 04 24 00 00 00 00 	movl   $0x0,(%esp)
    2a34:	e8 49 14 00 00       	call   3e82 <exit>
  for (i = 0; i < 20; i++)
  {
    memset(buf, i, 600);
    if (write(fd, buf, 600) != 600)
    {
      printf(1, "write bigfile failed\n");
    2a39:	83 ec 08             	sub    $0x8,%esp
    2a3c:	68 d0 4d 00 00       	push   $0x4dd0
    2a41:	6a 01                	push   $0x1
    2a43:	e8 98 15 00 00       	call   3fe0 <printf>
      exit(FAIL_STATUS);
    2a48:	c7 04 24 00 00 00 00 	movl   $0x0,(%esp)
    2a4f:	e8 2e 14 00 00       	call   3e82 <exit>
  close(fd);

  fd = open("bigfile", 0);
  if (fd < 0)
  {
    printf(1, "cannot open bigfile\n");
    2a54:	83 ec 08             	sub    $0x8,%esp
    2a57:	68 e6 4d 00 00       	push   $0x4de6
    2a5c:	6a 01                	push   $0x1
    2a5e:	e8 7d 15 00 00       	call   3fe0 <printf>
    exit(FAIL_STATUS);
    2a63:	c7 04 24 00 00 00 00 	movl   $0x0,(%esp)
    2a6a:	e8 13 14 00 00       	call   3e82 <exit>

  unlink("bigfile");
  fd = open("bigfile", O_CREATE | O_RDWR);
  if (fd < 0)
  {
    printf(1, "cannot create bigfile");
    2a6f:	83 ec 08             	sub    $0x8,%esp
    2a72:	68 ba 4d 00 00       	push   $0x4dba
    2a77:	6a 01                	push   $0x1
    2a79:	e8 62 15 00 00       	call   3fe0 <printf>
    exit(FAIL_STATUS);
    2a7e:	c7 04 24 00 00 00 00 	movl   $0x0,(%esp)
    2a85:	e8 f8 13 00 00       	call   3e82 <exit>
    total += cc;
  }
  close(fd);
  if (total != 20 * 600)
  {
    printf(1, "read bigfile wrong total\n");
    2a8a:	83 ec 08             	sub    $0x8,%esp
    2a8d:	68 3d 4e 00 00       	push   $0x4e3d
    2a92:	6a 01                	push   $0x1
    2a94:	e8 47 15 00 00       	call   3fe0 <printf>
    exit(FAIL_STATUS);
    2a99:	c7 04 24 00 00 00 00 	movl   $0x0,(%esp)
    2aa0:	e8 dd 13 00 00       	call   3e82 <exit>
    2aa5:	8d 74 26 00          	lea    0x0(%esi,%eiz,1),%esi
    2aa9:	8d bc 27 00 00 00 00 	lea    0x0(%edi,%eiz,1),%edi

00002ab0 <fourteen>:

  printf(1, "bigfile test ok\n");
}

void fourteen(void)
{
    2ab0:	55                   	push   %ebp
    2ab1:	89 e5                	mov    %esp,%ebp
    2ab3:	83 ec 10             	sub    $0x10,%esp
  int fd;

  // DIRSIZ is 14.
  printf(1, "fourteen test\n");
    2ab6:	68 68 4e 00 00       	push   $0x4e68
    2abb:	6a 01                	push   $0x1
    2abd:	e8 1e 15 00 00       	call   3fe0 <printf>

  if (mkdir("12345678901234") != 0)
    2ac2:	c7 04 24 a3 4e 00 00 	movl   $0x4ea3,(%esp)
    2ac9:	e8 1c 14 00 00       	call   3eea <mkdir>
    2ace:	83 c4 10             	add    $0x10,%esp
    2ad1:	85 c0                	test   %eax,%eax
    2ad3:	0f 85 9b 00 00 00    	jne    2b74 <fourteen+0xc4>
  {
    printf(1, "mkdir 12345678901234 failed\n");
    exit(FAIL_STATUS);
  }
  if (mkdir("12345678901234/123456789012345") != 0)
    2ad9:	83 ec 0c             	sub    $0xc,%esp
    2adc:	68 60 56 00 00       	push   $0x5660
    2ae1:	e8 04 14 00 00       	call   3eea <mkdir>
    2ae6:	83 c4 10             	add    $0x10,%esp
    2ae9:	85 c0                	test   %eax,%eax
    2aeb:	0f 85 05 01 00 00    	jne    2bf6 <fourteen+0x146>
  {
    printf(1, "mkdir 12345678901234/123456789012345 failed\n");
    exit(FAIL_STATUS);
  }
  fd = open("123456789012345/123456789012345/123456789012345", O_CREATE);
    2af1:	83 ec 08             	sub    $0x8,%esp
    2af4:	68 00 02 00 00       	push   $0x200
    2af9:	68 b0 56 00 00       	push   $0x56b0
    2afe:	e8 bf 13 00 00       	call   3ec2 <open>
  if (fd < 0)
    2b03:	83 c4 10             	add    $0x10,%esp
    2b06:	85 c0                	test   %eax,%eax
    2b08:	0f 88 ce 00 00 00    	js     2bdc <fourteen+0x12c>
  {
    printf(1, "create 123456789012345/123456789012345/123456789012345 failed\n");
    exit(FAIL_STATUS);
  }
  close(fd);
    2b0e:	83 ec 0c             	sub    $0xc,%esp
    2b11:	50                   	push   %eax
    2b12:	e8 93 13 00 00       	call   3eaa <close>
  fd = open("12345678901234/12345678901234/12345678901234", 0);
    2b17:	58                   	pop    %eax
    2b18:	5a                   	pop    %edx
    2b19:	6a 00                	push   $0x0
    2b1b:	68 20 57 00 00       	push   $0x5720
    2b20:	e8 9d 13 00 00       	call   3ec2 <open>
  if (fd < 0)
    2b25:	83 c4 10             	add    $0x10,%esp
    2b28:	85 c0                	test   %eax,%eax
    2b2a:	0f 88 92 00 00 00    	js     2bc2 <fourteen+0x112>
  {
    printf(1, "open 12345678901234/12345678901234/12345678901234 failed\n");
    exit(FAIL_STATUS);
  }
  close(fd);
    2b30:	83 ec 0c             	sub    $0xc,%esp
    2b33:	50                   	push   %eax
    2b34:	e8 71 13 00 00       	call   3eaa <close>

  if (mkdir("12345678901234/12345678901234") == 0)
    2b39:	c7 04 24 94 4e 00 00 	movl   $0x4e94,(%esp)
    2b40:	e8 a5 13 00 00       	call   3eea <mkdir>
    2b45:	83 c4 10             	add    $0x10,%esp
    2b48:	85 c0                	test   %eax,%eax
    2b4a:	74 5c                	je     2ba8 <fourteen+0xf8>
  {
    printf(1, "mkdir 12345678901234/12345678901234 succeeded!\n");
    exit(PASS_STATUS);
  }
  if (mkdir("123456789012345/12345678901234") == 0)
    2b4c:	83 ec 0c             	sub    $0xc,%esp
    2b4f:	68 bc 57 00 00       	push   $0x57bc
    2b54:	e8 91 13 00 00       	call   3eea <mkdir>
    2b59:	83 c4 10             	add    $0x10,%esp
    2b5c:	85 c0                	test   %eax,%eax
    2b5e:	74 2e                	je     2b8e <fourteen+0xde>
  {
    printf(1, "mkdir 12345678901234/123456789012345 succeeded!\n");
    exit(PASS_STATUS);
  }

  printf(1, "fourteen ok\n");
    2b60:	83 ec 08             	sub    $0x8,%esp
    2b63:	68 b2 4e 00 00       	push   $0x4eb2
    2b68:	6a 01                	push   $0x1
    2b6a:	e8 71 14 00 00       	call   3fe0 <printf>
}
    2b6f:	83 c4 10             	add    $0x10,%esp
    2b72:	c9                   	leave  
    2b73:	c3                   	ret    
  // DIRSIZ is 14.
  printf(1, "fourteen test\n");

  if (mkdir("12345678901234") != 0)
  {
    printf(1, "mkdir 12345678901234 failed\n");
    2b74:	50                   	push   %eax
    2b75:	50                   	push   %eax
    2b76:	68 77 4e 00 00       	push   $0x4e77
    2b7b:	6a 01                	push   $0x1
    2b7d:	e8 5e 14 00 00       	call   3fe0 <printf>
    exit(FAIL_STATUS);
    2b82:	c7 04 24 00 00 00 00 	movl   $0x0,(%esp)
    2b89:	e8 f4 12 00 00       	call   3e82 <exit>
    printf(1, "mkdir 12345678901234/12345678901234 succeeded!\n");
    exit(PASS_STATUS);
  }
  if (mkdir("123456789012345/12345678901234") == 0)
  {
    printf(1, "mkdir 12345678901234/123456789012345 succeeded!\n");
    2b8e:	50                   	push   %eax
    2b8f:	50                   	push   %eax
    2b90:	68 dc 57 00 00       	push   $0x57dc
    2b95:	6a 01                	push   $0x1
    2b97:	e8 44 14 00 00       	call   3fe0 <printf>
    exit(PASS_STATUS);
    2b9c:	c7 04 24 01 00 00 00 	movl   $0x1,(%esp)
    2ba3:	e8 da 12 00 00       	call   3e82 <exit>
  }
  close(fd);

  if (mkdir("12345678901234/12345678901234") == 0)
  {
    printf(1, "mkdir 12345678901234/12345678901234 succeeded!\n");
    2ba8:	52                   	push   %edx
    2ba9:	52                   	push   %edx
    2baa:	68 8c 57 00 00       	push   $0x578c
    2baf:	6a 01                	push   $0x1
    2bb1:	e8 2a 14 00 00       	call   3fe0 <printf>
    exit(PASS_STATUS);
    2bb6:	c7 04 24 01 00 00 00 	movl   $0x1,(%esp)
    2bbd:	e8 c0 12 00 00       	call   3e82 <exit>
  }
  close(fd);
  fd = open("12345678901234/12345678901234/12345678901234", 0);
  if (fd < 0)
  {
    printf(1, "open 12345678901234/12345678901234/12345678901234 failed\n");
    2bc2:	51                   	push   %ecx
    2bc3:	51                   	push   %ecx
    2bc4:	68 50 57 00 00       	push   $0x5750
    2bc9:	6a 01                	push   $0x1
    2bcb:	e8 10 14 00 00       	call   3fe0 <printf>
    exit(FAIL_STATUS);
    2bd0:	c7 04 24 00 00 00 00 	movl   $0x0,(%esp)
    2bd7:	e8 a6 12 00 00       	call   3e82 <exit>
    exit(FAIL_STATUS);
  }
  fd = open("123456789012345/123456789012345/123456789012345", O_CREATE);
  if (fd < 0)
  {
    printf(1, "create 123456789012345/123456789012345/123456789012345 failed\n");
    2bdc:	51                   	push   %ecx
    2bdd:	51                   	push   %ecx
    2bde:	68 e0 56 00 00       	push   $0x56e0
    2be3:	6a 01                	push   $0x1
    2be5:	e8 f6 13 00 00       	call   3fe0 <printf>
    exit(FAIL_STATUS);
    2bea:	c7 04 24 00 00 00 00 	movl   $0x0,(%esp)
    2bf1:	e8 8c 12 00 00       	call   3e82 <exit>
    printf(1, "mkdir 12345678901234 failed\n");
    exit(FAIL_STATUS);
  }
  if (mkdir("12345678901234/123456789012345") != 0)
  {
    printf(1, "mkdir 12345678901234/123456789012345 failed\n");
    2bf6:	50                   	push   %eax
    2bf7:	50                   	push   %eax
    2bf8:	68 80 56 00 00       	push   $0x5680
    2bfd:	6a 01                	push   $0x1
    2bff:	e8 dc 13 00 00       	call   3fe0 <printf>
    exit(FAIL_STATUS);
    2c04:	c7 04 24 00 00 00 00 	movl   $0x0,(%esp)
    2c0b:	e8 72 12 00 00       	call   3e82 <exit>

00002c10 <rmdot>:

  printf(1, "fourteen ok\n");
}

void rmdot(void)
{
    2c10:	55                   	push   %ebp
    2c11:	89 e5                	mov    %esp,%ebp
    2c13:	83 ec 10             	sub    $0x10,%esp
  printf(1, "rmdot test\n");
    2c16:	68 bf 4e 00 00       	push   $0x4ebf
    2c1b:	6a 01                	push   $0x1
    2c1d:	e8 be 13 00 00       	call   3fe0 <printf>
  if (mkdir("dots") != 0)
    2c22:	c7 04 24 cb 4e 00 00 	movl   $0x4ecb,(%esp)
    2c29:	e8 bc 12 00 00       	call   3eea <mkdir>
    2c2e:	83 c4 10             	add    $0x10,%esp
    2c31:	85 c0                	test   %eax,%eax
    2c33:	0f 85 b4 00 00 00    	jne    2ced <rmdot+0xdd>
  {
    printf(1, "mkdir dots failed\n");
    exit(FAIL_STATUS);
  }
  if (chdir("dots") != 0)
    2c39:	83 ec 0c             	sub    $0xc,%esp
    2c3c:	68 cb 4e 00 00       	push   $0x4ecb
    2c41:	e8 ac 12 00 00       	call   3ef2 <chdir>
    2c46:	83 c4 10             	add    $0x10,%esp
    2c49:	85 c0                	test   %eax,%eax
    2c4b:	0f 85 52 01 00 00    	jne    2da3 <rmdot+0x193>
  {
    printf(1, "chdir dots failed\n");
    exit(FAIL_STATUS);
  }
  if (unlink(".") == 0)
    2c51:	83 ec 0c             	sub    $0xc,%esp
    2c54:	68 76 4b 00 00       	push   $0x4b76
    2c59:	e8 74 12 00 00       	call   3ed2 <unlink>
    2c5e:	83 c4 10             	add    $0x10,%esp
    2c61:	85 c0                	test   %eax,%eax
    2c63:	0f 84 20 01 00 00    	je     2d89 <rmdot+0x179>
  {
    printf(1, "rm . worked!\n");
    exit(PASS_STATUS);
  }
  if (unlink("..") == 0)
    2c69:	83 ec 0c             	sub    $0xc,%esp
    2c6c:	68 75 4b 00 00       	push   $0x4b75
    2c71:	e8 5c 12 00 00       	call   3ed2 <unlink>
    2c76:	83 c4 10             	add    $0x10,%esp
    2c79:	85 c0                	test   %eax,%eax
    2c7b:	0f 84 ee 00 00 00    	je     2d6f <rmdot+0x15f>
  {
    printf(1, "rm .. worked!\n");
    exit(PASS_STATUS);
  }
  if (chdir("/") != 0)
    2c81:	83 ec 0c             	sub    $0xc,%esp
    2c84:	68 49 43 00 00       	push   $0x4349
    2c89:	e8 64 12 00 00       	call   3ef2 <chdir>
    2c8e:	83 c4 10             	add    $0x10,%esp
    2c91:	85 c0                	test   %eax,%eax
    2c93:	0f 85 bc 00 00 00    	jne    2d55 <rmdot+0x145>
  {
    printf(1, "chdir / failed\n");
    exit(FAIL_STATUS);
  }
  if (unlink("dots/.") == 0)
    2c99:	83 ec 0c             	sub    $0xc,%esp
    2c9c:	68 13 4f 00 00       	push   $0x4f13
    2ca1:	e8 2c 12 00 00       	call   3ed2 <unlink>
    2ca6:	83 c4 10             	add    $0x10,%esp
    2ca9:	85 c0                	test   %eax,%eax
    2cab:	0f 84 8a 00 00 00    	je     2d3b <rmdot+0x12b>
  {
    printf(1, "unlink dots/. worked!\n");
    exit(PASS_STATUS);
  }
  if (unlink("dots/..") == 0)
    2cb1:	83 ec 0c             	sub    $0xc,%esp
    2cb4:	68 31 4f 00 00       	push   $0x4f31
    2cb9:	e8 14 12 00 00       	call   3ed2 <unlink>
    2cbe:	83 c4 10             	add    $0x10,%esp
    2cc1:	85 c0                	test   %eax,%eax
    2cc3:	74 5c                	je     2d21 <rmdot+0x111>
  {
    printf(1, "unlink dots/.. worked!\n");
    exit(PASS_STATUS);
  }
  if (unlink("dots") != 0)
    2cc5:	83 ec 0c             	sub    $0xc,%esp
    2cc8:	68 cb 4e 00 00       	push   $0x4ecb
    2ccd:	e8 00 12 00 00       	call   3ed2 <unlink>
    2cd2:	83 c4 10             	add    $0x10,%esp
    2cd5:	85 c0                	test   %eax,%eax
    2cd7:	75 2e                	jne    2d07 <rmdot+0xf7>
  {
    printf(1, "unlink dots failed!\n");
    exit(FAIL_STATUS);
  }
  printf(1, "rmdot ok\n");
    2cd9:	83 ec 08             	sub    $0x8,%esp
    2cdc:	68 66 4f 00 00       	push   $0x4f66
    2ce1:	6a 01                	push   $0x1
    2ce3:	e8 f8 12 00 00       	call   3fe0 <printf>
}
    2ce8:	83 c4 10             	add    $0x10,%esp
    2ceb:	c9                   	leave  
    2cec:	c3                   	ret    
void rmdot(void)
{
  printf(1, "rmdot test\n");
  if (mkdir("dots") != 0)
  {
    printf(1, "mkdir dots failed\n");
    2ced:	50                   	push   %eax
    2cee:	50                   	push   %eax
    2cef:	68 d0 4e 00 00       	push   $0x4ed0
    2cf4:	6a 01                	push   $0x1
    2cf6:	e8 e5 12 00 00       	call   3fe0 <printf>
    exit(FAIL_STATUS);
    2cfb:	c7 04 24 00 00 00 00 	movl   $0x0,(%esp)
    2d02:	e8 7b 11 00 00       	call   3e82 <exit>
    printf(1, "unlink dots/.. worked!\n");
    exit(PASS_STATUS);
  }
  if (unlink("dots") != 0)
  {
    printf(1, "unlink dots failed!\n");
    2d07:	50                   	push   %eax
    2d08:	50                   	push   %eax
    2d09:	68 51 4f 00 00       	push   $0x4f51
    2d0e:	6a 01                	push   $0x1
    2d10:	e8 cb 12 00 00       	call   3fe0 <printf>
    exit(FAIL_STATUS);
    2d15:	c7 04 24 00 00 00 00 	movl   $0x0,(%esp)
    2d1c:	e8 61 11 00 00       	call   3e82 <exit>
    printf(1, "unlink dots/. worked!\n");
    exit(PASS_STATUS);
  }
  if (unlink("dots/..") == 0)
  {
    printf(1, "unlink dots/.. worked!\n");
    2d21:	52                   	push   %edx
    2d22:	52                   	push   %edx
    2d23:	68 39 4f 00 00       	push   $0x4f39
    2d28:	6a 01                	push   $0x1
    2d2a:	e8 b1 12 00 00       	call   3fe0 <printf>
    exit(PASS_STATUS);
    2d2f:	c7 04 24 01 00 00 00 	movl   $0x1,(%esp)
    2d36:	e8 47 11 00 00       	call   3e82 <exit>
    printf(1, "chdir / failed\n");
    exit(FAIL_STATUS);
  }
  if (unlink("dots/.") == 0)
  {
    printf(1, "unlink dots/. worked!\n");
    2d3b:	51                   	push   %ecx
    2d3c:	51                   	push   %ecx
    2d3d:	68 1a 4f 00 00       	push   $0x4f1a
    2d42:	6a 01                	push   $0x1
    2d44:	e8 97 12 00 00       	call   3fe0 <printf>
    exit(PASS_STATUS);
    2d49:	c7 04 24 01 00 00 00 	movl   $0x1,(%esp)
    2d50:	e8 2d 11 00 00       	call   3e82 <exit>
    printf(1, "rm .. worked!\n");
    exit(PASS_STATUS);
  }
  if (chdir("/") != 0)
  {
    printf(1, "chdir / failed\n");
    2d55:	50                   	push   %eax
    2d56:	50                   	push   %eax
    2d57:	68 4b 43 00 00       	push   $0x434b
    2d5c:	6a 01                	push   $0x1
    2d5e:	e8 7d 12 00 00       	call   3fe0 <printf>
    exit(FAIL_STATUS);
    2d63:	c7 04 24 00 00 00 00 	movl   $0x0,(%esp)
    2d6a:	e8 13 11 00 00       	call   3e82 <exit>
    printf(1, "rm . worked!\n");
    exit(PASS_STATUS);
  }
  if (unlink("..") == 0)
  {
    printf(1, "rm .. worked!\n");
    2d6f:	50                   	push   %eax
    2d70:	50                   	push   %eax
    2d71:	68 04 4f 00 00       	push   $0x4f04
    2d76:	6a 01                	push   $0x1
    2d78:	e8 63 12 00 00       	call   3fe0 <printf>
    exit(PASS_STATUS);
    2d7d:	c7 04 24 01 00 00 00 	movl   $0x1,(%esp)
    2d84:	e8 f9 10 00 00       	call   3e82 <exit>
    printf(1, "chdir dots failed\n");
    exit(FAIL_STATUS);
  }
  if (unlink(".") == 0)
  {
    printf(1, "rm . worked!\n");
    2d89:	50                   	push   %eax
    2d8a:	50                   	push   %eax
    2d8b:	68 f6 4e 00 00       	push   $0x4ef6
    2d90:	6a 01                	push   $0x1
    2d92:	e8 49 12 00 00       	call   3fe0 <printf>
    exit(PASS_STATUS);
    2d97:	c7 04 24 01 00 00 00 	movl   $0x1,(%esp)
    2d9e:	e8 df 10 00 00       	call   3e82 <exit>
    printf(1, "mkdir dots failed\n");
    exit(FAIL_STATUS);
  }
  if (chdir("dots") != 0)
  {
    printf(1, "chdir dots failed\n");
    2da3:	50                   	push   %eax
    2da4:	50                   	push   %eax
    2da5:	68 e3 4e 00 00       	push   $0x4ee3
    2daa:	6a 01                	push   $0x1
    2dac:	e8 2f 12 00 00       	call   3fe0 <printf>
    exit(FAIL_STATUS);
    2db1:	c7 04 24 00 00 00 00 	movl   $0x0,(%esp)
    2db8:	e8 c5 10 00 00       	call   3e82 <exit>
    2dbd:	8d 76 00             	lea    0x0(%esi),%esi

00002dc0 <dirfile>:
  }
  printf(1, "rmdot ok\n");
}

void dirfile(void)
{
    2dc0:	55                   	push   %ebp
    2dc1:	89 e5                	mov    %esp,%ebp
    2dc3:	53                   	push   %ebx
    2dc4:	83 ec 0c             	sub    $0xc,%esp
  int fd;

  printf(1, "dir vs file\n");
    2dc7:	68 70 4f 00 00       	push   $0x4f70
    2dcc:	6a 01                	push   $0x1
    2dce:	e8 0d 12 00 00       	call   3fe0 <printf>

  fd = open("dirfile", O_CREATE);
    2dd3:	59                   	pop    %ecx
    2dd4:	5b                   	pop    %ebx
    2dd5:	68 00 02 00 00       	push   $0x200
    2dda:	68 7d 4f 00 00       	push   $0x4f7d
    2ddf:	e8 de 10 00 00       	call   3ec2 <open>
  if (fd < 0)
    2de4:	83 c4 10             	add    $0x10,%esp
    2de7:	85 c0                	test   %eax,%eax
    2de9:	0f 88 51 01 00 00    	js     2f40 <dirfile+0x180>
  {
    printf(1, "create dirfile failed\n");
    exit(FAIL_STATUS);
  }
  close(fd);
    2def:	83 ec 0c             	sub    $0xc,%esp
    2df2:	50                   	push   %eax
    2df3:	e8 b2 10 00 00       	call   3eaa <close>
  if (chdir("dirfile") == 0)
    2df8:	c7 04 24 7d 4f 00 00 	movl   $0x4f7d,(%esp)
    2dff:	e8 ee 10 00 00       	call   3ef2 <chdir>
    2e04:	83 c4 10             	add    $0x10,%esp
    2e07:	85 c0                	test   %eax,%eax
    2e09:	0f 84 17 01 00 00    	je     2f26 <dirfile+0x166>
  {
    printf(1, "chdir dirfile succeeded!\n");
    exit(PASS_STATUS);
  }
  fd = open("dirfile/xx", 0);
    2e0f:	83 ec 08             	sub    $0x8,%esp
    2e12:	6a 00                	push   $0x0
    2e14:	68 b6 4f 00 00       	push   $0x4fb6
    2e19:	e8 a4 10 00 00       	call   3ec2 <open>
  if (fd >= 0)
    2e1e:	83 c4 10             	add    $0x10,%esp
    2e21:	85 c0                	test   %eax,%eax
    2e23:	0f 89 e3 00 00 00    	jns    2f0c <dirfile+0x14c>
  {
    printf(1, "create dirfile/xx succeeded!\n");
    exit(PASS_STATUS);
  }
  fd = open("dirfile/xx", O_CREATE);
    2e29:	83 ec 08             	sub    $0x8,%esp
    2e2c:	68 00 02 00 00       	push   $0x200
    2e31:	68 b6 4f 00 00       	push   $0x4fb6
    2e36:	e8 87 10 00 00       	call   3ec2 <open>
  if (fd >= 0)
    2e3b:	83 c4 10             	add    $0x10,%esp
    2e3e:	85 c0                	test   %eax,%eax
    2e40:	0f 89 c6 00 00 00    	jns    2f0c <dirfile+0x14c>
  {
    printf(1, "create dirfile/xx succeeded!\n");
    exit(PASS_STATUS);
  }
  if (mkdir("dirfile/xx") == 0)
    2e46:	83 ec 0c             	sub    $0xc,%esp
    2e49:	68 b6 4f 00 00       	push   $0x4fb6
    2e4e:	e8 97 10 00 00       	call   3eea <mkdir>
    2e53:	83 c4 10             	add    $0x10,%esp
    2e56:	85 c0                	test   %eax,%eax
    2e58:	0f 84 7e 01 00 00    	je     2fdc <dirfile+0x21c>
  {
    printf(1, "mkdir dirfile/xx succeeded!\n");
    exit(PASS_STATUS);
  }
  if (unlink("dirfile/xx") == 0)
    2e5e:	83 ec 0c             	sub    $0xc,%esp
    2e61:	68 b6 4f 00 00       	push   $0x4fb6
    2e66:	e8 67 10 00 00       	call   3ed2 <unlink>
    2e6b:	83 c4 10             	add    $0x10,%esp
    2e6e:	85 c0                	test   %eax,%eax
    2e70:	0f 84 4c 01 00 00    	je     2fc2 <dirfile+0x202>
  {
    printf(1, "unlink dirfile/xx succeeded!\n");
    exit(PASS_STATUS);
  }
  if (link("README", "dirfile/xx") == 0)
    2e76:	83 ec 08             	sub    $0x8,%esp
    2e79:	68 b6 4f 00 00       	push   $0x4fb6
    2e7e:	68 1a 50 00 00       	push   $0x501a
    2e83:	e8 5a 10 00 00       	call   3ee2 <link>
    2e88:	83 c4 10             	add    $0x10,%esp
    2e8b:	85 c0                	test   %eax,%eax
    2e8d:	0f 84 15 01 00 00    	je     2fa8 <dirfile+0x1e8>
  {
    printf(1, "link to dirfile/xx succeeded!\n");
    exit(PASS_STATUS);
  }
  if (unlink("dirfile") != 0)
    2e93:	83 ec 0c             	sub    $0xc,%esp
    2e96:	68 7d 4f 00 00       	push   $0x4f7d
    2e9b:	e8 32 10 00 00       	call   3ed2 <unlink>
    2ea0:	83 c4 10             	add    $0x10,%esp
    2ea3:	85 c0                	test   %eax,%eax
    2ea5:	0f 85 e3 00 00 00    	jne    2f8e <dirfile+0x1ce>
  {
    printf(1, "unlink dirfile failed!\n");
    exit(FAIL_STATUS);
  }

  fd = open(".", O_RDWR);
    2eab:	83 ec 08             	sub    $0x8,%esp
    2eae:	6a 02                	push   $0x2
    2eb0:	68 76 4b 00 00       	push   $0x4b76
    2eb5:	e8 08 10 00 00       	call   3ec2 <open>
  if (fd >= 0)
    2eba:	83 c4 10             	add    $0x10,%esp
    2ebd:	85 c0                	test   %eax,%eax
    2ebf:	0f 89 af 00 00 00    	jns    2f74 <dirfile+0x1b4>
  {
    printf(1, "open . for writing succeeded!\n");
    exit(PASS_STATUS);
  }
  fd = open(".", 0);
    2ec5:	83 ec 08             	sub    $0x8,%esp
    2ec8:	6a 00                	push   $0x0
    2eca:	68 76 4b 00 00       	push   $0x4b76
    2ecf:	e8 ee 0f 00 00       	call   3ec2 <open>
  if (write(fd, "x", 1) > 0)
    2ed4:	83 c4 0c             	add    $0xc,%esp
  if (fd >= 0)
  {
    printf(1, "open . for writing succeeded!\n");
    exit(PASS_STATUS);
  }
  fd = open(".", 0);
    2ed7:	89 c3                	mov    %eax,%ebx
  if (write(fd, "x", 1) > 0)
    2ed9:	6a 01                	push   $0x1
    2edb:	68 59 4c 00 00       	push   $0x4c59
    2ee0:	50                   	push   %eax
    2ee1:	e8 bc 0f 00 00       	call   3ea2 <write>
    2ee6:	83 c4 10             	add    $0x10,%esp
    2ee9:	85 c0                	test   %eax,%eax
    2eeb:	7f 6d                	jg     2f5a <dirfile+0x19a>
  {
    printf(1, "write . succeeded!\n");
    exit(PASS_STATUS);
  }
  close(fd);
    2eed:	83 ec 0c             	sub    $0xc,%esp
    2ef0:	53                   	push   %ebx
    2ef1:	e8 b4 0f 00 00       	call   3eaa <close>

  printf(1, "dir vs file OK\n");
    2ef6:	58                   	pop    %eax
    2ef7:	5a                   	pop    %edx
    2ef8:	68 4d 50 00 00       	push   $0x504d
    2efd:	6a 01                	push   $0x1
    2eff:	e8 dc 10 00 00       	call   3fe0 <printf>
}
    2f04:	83 c4 10             	add    $0x10,%esp
    2f07:	8b 5d fc             	mov    -0x4(%ebp),%ebx
    2f0a:	c9                   	leave  
    2f0b:	c3                   	ret    
    exit(PASS_STATUS);
  }
  fd = open("dirfile/xx", 0);
  if (fd >= 0)
  {
    printf(1, "create dirfile/xx succeeded!\n");
    2f0c:	50                   	push   %eax
    2f0d:	50                   	push   %eax
    2f0e:	68 c1 4f 00 00       	push   $0x4fc1
    2f13:	6a 01                	push   $0x1
    2f15:	e8 c6 10 00 00       	call   3fe0 <printf>
    exit(PASS_STATUS);
    2f1a:	c7 04 24 01 00 00 00 	movl   $0x1,(%esp)
    2f21:	e8 5c 0f 00 00       	call   3e82 <exit>
    exit(FAIL_STATUS);
  }
  close(fd);
  if (chdir("dirfile") == 0)
  {
    printf(1, "chdir dirfile succeeded!\n");
    2f26:	50                   	push   %eax
    2f27:	50                   	push   %eax
    2f28:	68 9c 4f 00 00       	push   $0x4f9c
    2f2d:	6a 01                	push   $0x1
    2f2f:	e8 ac 10 00 00       	call   3fe0 <printf>
    exit(PASS_STATUS);
    2f34:	c7 04 24 01 00 00 00 	movl   $0x1,(%esp)
    2f3b:	e8 42 0f 00 00       	call   3e82 <exit>
  printf(1, "dir vs file\n");

  fd = open("dirfile", O_CREATE);
  if (fd < 0)
  {
    printf(1, "create dirfile failed\n");
    2f40:	52                   	push   %edx
    2f41:	52                   	push   %edx
    2f42:	68 85 4f 00 00       	push   $0x4f85
    2f47:	6a 01                	push   $0x1
    2f49:	e8 92 10 00 00       	call   3fe0 <printf>
    exit(FAIL_STATUS);
    2f4e:	c7 04 24 00 00 00 00 	movl   $0x0,(%esp)
    2f55:	e8 28 0f 00 00       	call   3e82 <exit>
    exit(PASS_STATUS);
  }
  fd = open(".", 0);
  if (write(fd, "x", 1) > 0)
  {
    printf(1, "write . succeeded!\n");
    2f5a:	51                   	push   %ecx
    2f5b:	51                   	push   %ecx
    2f5c:	68 39 50 00 00       	push   $0x5039
    2f61:	6a 01                	push   $0x1
    2f63:	e8 78 10 00 00       	call   3fe0 <printf>
    exit(PASS_STATUS);
    2f68:	c7 04 24 01 00 00 00 	movl   $0x1,(%esp)
    2f6f:	e8 0e 0f 00 00       	call   3e82 <exit>
  }

  fd = open(".", O_RDWR);
  if (fd >= 0)
  {
    printf(1, "open . for writing succeeded!\n");
    2f74:	53                   	push   %ebx
    2f75:	53                   	push   %ebx
    2f76:	68 30 58 00 00       	push   $0x5830
    2f7b:	6a 01                	push   $0x1
    2f7d:	e8 5e 10 00 00       	call   3fe0 <printf>
    exit(PASS_STATUS);
    2f82:	c7 04 24 01 00 00 00 	movl   $0x1,(%esp)
    2f89:	e8 f4 0e 00 00       	call   3e82 <exit>
    printf(1, "link to dirfile/xx succeeded!\n");
    exit(PASS_STATUS);
  }
  if (unlink("dirfile") != 0)
  {
    printf(1, "unlink dirfile failed!\n");
    2f8e:	50                   	push   %eax
    2f8f:	50                   	push   %eax
    2f90:	68 21 50 00 00       	push   $0x5021
    2f95:	6a 01                	push   $0x1
    2f97:	e8 44 10 00 00       	call   3fe0 <printf>
    exit(FAIL_STATUS);
    2f9c:	c7 04 24 00 00 00 00 	movl   $0x0,(%esp)
    2fa3:	e8 da 0e 00 00       	call   3e82 <exit>
    printf(1, "unlink dirfile/xx succeeded!\n");
    exit(PASS_STATUS);
  }
  if (link("README", "dirfile/xx") == 0)
  {
    printf(1, "link to dirfile/xx succeeded!\n");
    2fa8:	50                   	push   %eax
    2fa9:	50                   	push   %eax
    2faa:	68 10 58 00 00       	push   $0x5810
    2faf:	6a 01                	push   $0x1
    2fb1:	e8 2a 10 00 00       	call   3fe0 <printf>
    exit(PASS_STATUS);
    2fb6:	c7 04 24 01 00 00 00 	movl   $0x1,(%esp)
    2fbd:	e8 c0 0e 00 00       	call   3e82 <exit>
    printf(1, "mkdir dirfile/xx succeeded!\n");
    exit(PASS_STATUS);
  }
  if (unlink("dirfile/xx") == 0)
  {
    printf(1, "unlink dirfile/xx succeeded!\n");
    2fc2:	50                   	push   %eax
    2fc3:	50                   	push   %eax
    2fc4:	68 fc 4f 00 00       	push   $0x4ffc
    2fc9:	6a 01                	push   $0x1
    2fcb:	e8 10 10 00 00       	call   3fe0 <printf>
    exit(PASS_STATUS);
    2fd0:	c7 04 24 01 00 00 00 	movl   $0x1,(%esp)
    2fd7:	e8 a6 0e 00 00       	call   3e82 <exit>
    printf(1, "create dirfile/xx succeeded!\n");
    exit(PASS_STATUS);
  }
  if (mkdir("dirfile/xx") == 0)
  {
    printf(1, "mkdir dirfile/xx succeeded!\n");
    2fdc:	50                   	push   %eax
    2fdd:	50                   	push   %eax
    2fde:	68 df 4f 00 00       	push   $0x4fdf
    2fe3:	6a 01                	push   $0x1
    2fe5:	e8 f6 0f 00 00       	call   3fe0 <printf>
    exit(PASS_STATUS);
    2fea:	c7 04 24 01 00 00 00 	movl   $0x1,(%esp)
    2ff1:	e8 8c 0e 00 00       	call   3e82 <exit>
    2ff6:	8d 76 00             	lea    0x0(%esi),%esi
    2ff9:	8d bc 27 00 00 00 00 	lea    0x0(%edi,%eiz,1),%edi

00003000 <iref>:
  printf(1, "dir vs file OK\n");
}

// test that iput() is called at the end of _namei()
void iref(void)
{
    3000:	55                   	push   %ebp
    3001:	89 e5                	mov    %esp,%ebp
    3003:	53                   	push   %ebx
  int i, fd;

  printf(1, "empty file name\n");
    3004:	bb 33 00 00 00       	mov    $0x33,%ebx
  printf(1, "dir vs file OK\n");
}

// test that iput() is called at the end of _namei()
void iref(void)
{
    3009:	83 ec 0c             	sub    $0xc,%esp
  int i, fd;

  printf(1, "empty file name\n");
    300c:	68 5d 50 00 00       	push   $0x505d
    3011:	6a 01                	push   $0x1
    3013:	e8 c8 0f 00 00       	call   3fe0 <printf>
    3018:	83 c4 10             	add    $0x10,%esp
    301b:	90                   	nop
    301c:	8d 74 26 00          	lea    0x0(%esi,%eiz,1),%esi

  // the 50 is NINODE
  for (i = 0; i < 50 + 1; i++)
  {
    if (mkdir("irefd") != 0)
    3020:	83 ec 0c             	sub    $0xc,%esp
    3023:	68 6e 50 00 00       	push   $0x506e
    3028:	e8 bd 0e 00 00       	call   3eea <mkdir>
    302d:	83 c4 10             	add    $0x10,%esp
    3030:	85 c0                	test   %eax,%eax
    3032:	0f 85 bb 00 00 00    	jne    30f3 <iref+0xf3>
    {
      printf(1, "mkdir irefd failed\n");
      exit(FAIL_STATUS);
    }
    if (chdir("irefd") != 0)
    3038:	83 ec 0c             	sub    $0xc,%esp
    303b:	68 6e 50 00 00       	push   $0x506e
    3040:	e8 ad 0e 00 00       	call   3ef2 <chdir>
    3045:	83 c4 10             	add    $0x10,%esp
    3048:	85 c0                	test   %eax,%eax
    304a:	0f 85 be 00 00 00    	jne    310e <iref+0x10e>
    {
      printf(1, "chdir irefd failed\n");
      exit(FAIL_STATUS);
    }

    mkdir("");
    3050:	83 ec 0c             	sub    $0xc,%esp
    3053:	68 23 47 00 00       	push   $0x4723
    3058:	e8 8d 0e 00 00       	call   3eea <mkdir>
    link("README", "");
    305d:	59                   	pop    %ecx
    305e:	58                   	pop    %eax
    305f:	68 23 47 00 00       	push   $0x4723
    3064:	68 1a 50 00 00       	push   $0x501a
    3069:	e8 74 0e 00 00       	call   3ee2 <link>
    fd = open("", O_CREATE);
    306e:	58                   	pop    %eax
    306f:	5a                   	pop    %edx
    3070:	68 00 02 00 00       	push   $0x200
    3075:	68 23 47 00 00       	push   $0x4723
    307a:	e8 43 0e 00 00       	call   3ec2 <open>
    if (fd >= 0)
    307f:	83 c4 10             	add    $0x10,%esp
    3082:	85 c0                	test   %eax,%eax
    3084:	78 0c                	js     3092 <iref+0x92>
      close(fd);
    3086:	83 ec 0c             	sub    $0xc,%esp
    3089:	50                   	push   %eax
    308a:	e8 1b 0e 00 00       	call   3eaa <close>
    308f:	83 c4 10             	add    $0x10,%esp
    fd = open("xx", O_CREATE);
    3092:	83 ec 08             	sub    $0x8,%esp
    3095:	68 00 02 00 00       	push   $0x200
    309a:	68 58 4c 00 00       	push   $0x4c58
    309f:	e8 1e 0e 00 00       	call   3ec2 <open>
    if (fd >= 0)
    30a4:	83 c4 10             	add    $0x10,%esp
    30a7:	85 c0                	test   %eax,%eax
    30a9:	78 0c                	js     30b7 <iref+0xb7>
      close(fd);
    30ab:	83 ec 0c             	sub    $0xc,%esp
    30ae:	50                   	push   %eax
    30af:	e8 f6 0d 00 00       	call   3eaa <close>
    30b4:	83 c4 10             	add    $0x10,%esp
    unlink("xx");
    30b7:	83 ec 0c             	sub    $0xc,%esp
    30ba:	68 58 4c 00 00       	push   $0x4c58
    30bf:	e8 0e 0e 00 00       	call   3ed2 <unlink>
  int i, fd;

  printf(1, "empty file name\n");

  // the 50 is NINODE
  for (i = 0; i < 50 + 1; i++)
    30c4:	83 c4 10             	add    $0x10,%esp
    30c7:	83 eb 01             	sub    $0x1,%ebx
    30ca:	0f 85 50 ff ff ff    	jne    3020 <iref+0x20>
    if (fd >= 0)
      close(fd);
    unlink("xx");
  }

  chdir("/");
    30d0:	83 ec 0c             	sub    $0xc,%esp
    30d3:	68 49 43 00 00       	push   $0x4349
    30d8:	e8 15 0e 00 00       	call   3ef2 <chdir>
  printf(1, "empty file name OK\n");
    30dd:	58                   	pop    %eax
    30de:	5a                   	pop    %edx
    30df:	68 9c 50 00 00       	push   $0x509c
    30e4:	6a 01                	push   $0x1
    30e6:	e8 f5 0e 00 00       	call   3fe0 <printf>
}
    30eb:	83 c4 10             	add    $0x10,%esp
    30ee:	8b 5d fc             	mov    -0x4(%ebp),%ebx
    30f1:	c9                   	leave  
    30f2:	c3                   	ret    
  // the 50 is NINODE
  for (i = 0; i < 50 + 1; i++)
  {
    if (mkdir("irefd") != 0)
    {
      printf(1, "mkdir irefd failed\n");
    30f3:	83 ec 08             	sub    $0x8,%esp
    30f6:	68 74 50 00 00       	push   $0x5074
    30fb:	6a 01                	push   $0x1
    30fd:	e8 de 0e 00 00       	call   3fe0 <printf>
      exit(FAIL_STATUS);
    3102:	c7 04 24 00 00 00 00 	movl   $0x0,(%esp)
    3109:	e8 74 0d 00 00       	call   3e82 <exit>
    }
    if (chdir("irefd") != 0)
    {
      printf(1, "chdir irefd failed\n");
    310e:	83 ec 08             	sub    $0x8,%esp
    3111:	68 88 50 00 00       	push   $0x5088
    3116:	6a 01                	push   $0x1
    3118:	e8 c3 0e 00 00       	call   3fe0 <printf>
      exit(FAIL_STATUS);
    311d:	c7 04 24 00 00 00 00 	movl   $0x0,(%esp)
    3124:	e8 59 0d 00 00       	call   3e82 <exit>
    3129:	8d b4 26 00 00 00 00 	lea    0x0(%esi,%eiz,1),%esi

00003130 <forktest>:

// test that fork fails gracefully
// the forktest binary also does this, but it runs out of proc entries first.
// inside the bigger usertests binary, we run out of memory first.
void forktest(void)
{
    3130:	55                   	push   %ebp
    3131:	89 e5                	mov    %esp,%ebp
    3133:	56                   	push   %esi
    3134:	53                   	push   %ebx
  int n, pid;
  int status;

  printf(1, "fork test\n");

  for (n = 0; n < 1000; n++)
    3135:	31 db                	xor    %ebx,%ebx

// test that fork fails gracefully
// the forktest binary also does this, but it runs out of proc entries first.
// inside the bigger usertests binary, we run out of memory first.
void forktest(void)
{
    3137:	83 ec 18             	sub    $0x18,%esp
  int n, pid;
  int status;

  printf(1, "fork test\n");
    313a:	68 b0 50 00 00       	push   $0x50b0
    313f:	6a 01                	push   $0x1
    3141:	e8 9a 0e 00 00       	call   3fe0 <printf>
    3146:	83 c4 10             	add    $0x10,%esp
    3149:	eb 12                	jmp    315d <forktest+0x2d>
    314b:	90                   	nop
    314c:	8d 74 26 00          	lea    0x0(%esi,%eiz,1),%esi
  for (n = 0; n < 1000; n++)
  {
    pid = fork();
    if (pid < 0)
      break;
    if (pid == 0)
    3150:	74 79                	je     31cb <forktest+0x9b>
  int n, pid;
  int status;

  printf(1, "fork test\n");

  for (n = 0; n < 1000; n++)
    3152:	83 c3 01             	add    $0x1,%ebx
    3155:	81 fb e8 03 00 00    	cmp    $0x3e8,%ebx
    315b:	74 53                	je     31b0 <forktest+0x80>
  {
    pid = fork();
    315d:	e8 18 0d 00 00       	call   3e7a <fork>
    if (pid < 0)
    3162:	85 c0                	test   %eax,%eax
    3164:	79 ea                	jns    3150 <forktest+0x20>
  {
    printf(1, "fork claimed to work 1000 times!\n");
    exit(FAIL_STATUS);
  }

  for (; n > 0; n--)
    3166:	85 db                	test   %ebx,%ebx
    3168:	8d 75 f4             	lea    -0xc(%ebp),%esi
    316b:	74 18                	je     3185 <forktest+0x55>
    316d:	8d 76 00             	lea    0x0(%esi),%esi
  {
    if (wait(&status) < 0)
    3170:	83 ec 0c             	sub    $0xc,%esp
    3173:	56                   	push   %esi
    3174:	e8 11 0d 00 00       	call   3e8a <wait>
    3179:	83 c4 10             	add    $0x10,%esp
    317c:	85 c0                	test   %eax,%eax
    317e:	78 55                	js     31d5 <forktest+0xa5>
  {
    printf(1, "fork claimed to work 1000 times!\n");
    exit(FAIL_STATUS);
  }

  for (; n > 0; n--)
    3180:	83 eb 01             	sub    $0x1,%ebx
    3183:	75 eb                	jne    3170 <forktest+0x40>
      printf(1, "wait stopped early\n");
      exit(FAIL_STATUS);
    }
  }

  if (wait(&status) != -1)
    3185:	83 ec 0c             	sub    $0xc,%esp
    3188:	56                   	push   %esi
    3189:	e8 fc 0c 00 00       	call   3e8a <wait>
    318e:	83 c4 10             	add    $0x10,%esp
    3191:	83 f8 ff             	cmp    $0xffffffff,%eax
    3194:	75 5a                	jne    31f0 <forktest+0xc0>
  {
    printf(1, "wait got too many\n");
    exit(FAIL_STATUS);
  }

  printf(1, "fork test OK\n");
    3196:	83 ec 08             	sub    $0x8,%esp
    3199:	68 e2 50 00 00       	push   $0x50e2
    319e:	6a 01                	push   $0x1
    31a0:	e8 3b 0e 00 00       	call   3fe0 <printf>
}
    31a5:	8d 65 f8             	lea    -0x8(%ebp),%esp
    31a8:	5b                   	pop    %ebx
    31a9:	5e                   	pop    %esi
    31aa:	5d                   	pop    %ebp
    31ab:	c3                   	ret    
    31ac:	8d 74 26 00          	lea    0x0(%esi,%eiz,1),%esi
